Archive member included to satisfy reference by file (symbol)

C:/Users/jukken/rpi4_hyp_803/src/hardware/startup/boards/../../../../install/aarch64le/usr/lib\libstartup.a(_main.o)
                              main.o (shdr)
C:/Users/jukken/rpi4_hyp_803/src/hardware/startup/boards/../../../../install/aarch64le/usr/lib\libstartup.a(add_interrupt.o)
                              init_intrinfo.o (add_interrupt_array)
C:/Users/jukken/rpi4_hyp_803/src/hardware/startup/boards/../../../../install/aarch64le/usr/lib\libstartup.a(as_add_containing.o)
                              bcm2711_init_raminfo.o (as_add_containing)
C:/Users/jukken/rpi4_hyp_803/src/hardware/startup/boards/../../../../install/aarch64le/usr/lib\libstartup.a(as_find_containing.o)
                              C:/Users/jukken/rpi4_hyp_803/src/hardware/startup/boards/../../../../install/aarch64le/usr/lib\libstartup.a(as_add_containing.o) (as_find_containing)
C:/Users/jukken/rpi4_hyp_803/src/hardware/startup/boards/../../../../install/aarch64le/usr/lib\libstartup.a(as_off2info.o)
                              C:/Users/jukken/rpi4_hyp_803/src/hardware/startup/boards/../../../../install/aarch64le/usr/lib\libstartup.a(as_add_containing.o) (as_off2info)
C:/Users/jukken/rpi4_hyp_803/src/hardware/startup/boards/../../../../install/aarch64le/usr/lib\libstartup.a(board_init.o)
                              C:/Users/jukken/rpi4_hyp_803/src/hardware/startup/boards/../../../../install/aarch64le/usr/lib\libstartup.a(_main.o) (board_init)
C:/Users/jukken/rpi4_hyp_803/src/hardware/startup/boards/../../../../install/aarch64le/usr/lib\libstartup.a(bootstrap_cmdline.o)
                              main.o (bootstrap_arg_adjust)
C:/Users/jukken/rpi4_hyp_803/src/hardware/startup/boards/../../../../install/aarch64le/usr/lib\libstartup.a(callout_debug_pl011.o)
                              main.o (display_char_pl011)
C:/Users/jukken/rpi4_hyp_803/src/hardware/startup/boards/../../../../install/aarch64le/usr/lib\libstartup.a(callout_sendipi_gic_v2.o)
                              board_smp.o (sendipi_gic_v2)
C:/Users/jukken/rpi4_hyp_803/src/hardware/startup/boards/../../../../install/aarch64le/usr/lib\libstartup.a(callouts.o)
                              C:/Users/jukken/rpi4_hyp_803/src/hardware/startup/boards/../../../../install/aarch64le/usr/lib\libstartup.a(add_interrupt.o) (callout_output_one)
C:/Users/jukken/rpi4_hyp_803/src/hardware/startup/boards/../../../../install/aarch64le/usr/lib\libstartup.a(common_options.o)
                              main.o (handle_common_option)
C:/Users/jukken/rpi4_hyp_803/src/hardware/startup/boards/../../../../install/aarch64le/usr/lib\libstartup.a(cpu_cluster_add.o)
                              C:/Users/jukken/rpi4_hyp_803/src/hardware/startup/boards/../../../../install/aarch64le/usr/lib\libstartup.a(common_options.o) (cpu_cluster_add)
C:/Users/jukken/rpi4_hyp_803/src/hardware/startup/boards/../../../../install/aarch64le/usr/lib\libstartup.a(cpu_common_options.o)
                              C:/Users/jukken/rpi4_hyp_803/src/hardware/startup/boards/../../../../install/aarch64le/usr/lib\libstartup.a(common_options.o) (cpu_handle_common_option)
C:/Users/jukken/rpi4_hyp_803/src/hardware/startup/boards/../../../../install/aarch64le/usr/lib\libstartup.a(cpu_startup.o)
                              C:/Users/jukken/rpi4_hyp_803/src/hardware/startup/boards/../../../../install/aarch64le/usr/lib\libstartup.a(_main.o) (cpu_startup)
C:/Users/jukken/rpi4_hyp_803/src/hardware/startup/boards/../../../../install/aarch64le/usr/lib\libstartup.a(cstart.o)
                              C:/Users/jukken/rpi4_hyp_803/src/hardware/startup/boards/../../../../install/aarch64le/usr/lib\libstartup.a(_main.o) (stack_addr_lo)
C:/Users/jukken/rpi4_hyp_803/src/hardware/startup/boards/../../../../install/aarch64le/usr/lib\libstartup.a(debug.o)
                              main.o (print_syspage)
C:/Users/jukken/rpi4_hyp_803/src/hardware/startup/boards/../../../../install/aarch64le/usr/lib\libstartup.a(fdt_init_bootopt.o)
                              C:/Users/jukken/rpi4_hyp_803/src/hardware/startup/boards/../../../../install/aarch64le/usr/lib\libstartup.a(cpu_common_options.o) (fdt_init_bootopt)
C:/Users/jukken/rpi4_hyp_803/src/hardware/startup/boards/../../../../install/aarch64le/usr/lib\libstartup.a(fdt_vars.o)
                              C:/Users/jukken/rpi4_hyp_803/src/hardware/startup/boards/../../../../install/aarch64le/usr/lib\libstartup.a(cpu_common_options.o) (fdt_boot_option)
C:/Users/jukken/rpi4_hyp_803/src/hardware/startup/boards/../../../../install/aarch64le/usr/lib\libstartup.a(getopt.o)
                              main.o (getopt)
C:/Users/jukken/rpi4_hyp_803/src/hardware/startup/boards/../../../../install/aarch64le/usr/lib\libstartup.a(getsize.o)
                              C:/Users/jukken/rpi4_hyp_803/src/hardware/startup/boards/../../../../install/aarch64le/usr/lib\libstartup.a(common_options.o) (getsize)
C:/Users/jukken/rpi4_hyp_803/src/hardware/startup/boards/../../../../install/aarch64le/usr/lib\libstartup.a(gic.o)
                              C:/Users/jukken/rpi4_hyp_803/src/hardware/startup/boards/../../../../install/aarch64le/usr/lib\libstartup.a(callout_sendipi_gic_v2.o) (gic_gicd_vaddr)
C:/Users/jukken/rpi4_hyp_803/src/hardware/startup/boards/../../../../install/aarch64le/usr/lib\libstartup.a(gic_v2.o)
                              init_intrinfo.o (gic_v2_init)
C:/Users/jukken/rpi4_hyp_803/src/hardware/startup/boards/../../../../install/aarch64le/usr/lib\libstartup.a(hw_serpl011.o)
                              main.o (init_pl011)
C:/Users/jukken/rpi4_hyp_803/src/hardware/startup/boards/../../../../install/aarch64le/usr/lib\libstartup.a(hwi_add_nanospin.o)
                              C:/Users/jukken/rpi4_hyp_803/src/hardware/startup/boards/../../../../install/aarch64le/usr/lib\libstartup.a(common_options.o) (hwi_add_nanospin)
C:/Users/jukken/rpi4_hyp_803/src/hardware/startup/boards/../../../../install/aarch64le/usr/lib\libstartup.a(hwi_alloc.o)
                              C:/Users/jukken/rpi4_hyp_803/src/hardware/startup/boards/../../../../install/aarch64le/usr/lib\libstartup.a(as_find_containing.o) (__hwi_find_string)
C:/Users/jukken/rpi4_hyp_803/src/hardware/startup/boards/../../../../install/aarch64le/usr/lib\libstartup.a(hwi_find_as.o)
                              init_hwinfo.o (hwi_find_as)
C:/Users/jukken/rpi4_hyp_803/src/hardware/startup/boards/../../../../install/aarch64le/usr/lib\libstartup.a(hwidev_add.o)
                              init_hwinfo.o (hwidev_add)
C:/Users/jukken/rpi4_hyp_803/src/hardware/startup/boards/../../../../install/aarch64le/usr/lib\libstartup.a(hwidev_add_dma.o)
                              init_hwinfo.o (hwidev_add_dma)
C:/Users/jukken/rpi4_hyp_803/src/hardware/startup/boards/../../../../install/aarch64le/usr/lib\libstartup.a(hwidev_add_enet.o)
                              init_hwinfo.o (hwidev_add_enet)
C:/Users/jukken/rpi4_hyp_803/src/hardware/startup/boards/../../../../install/aarch64le/usr/lib\libstartup.a(hwidev_add_timer.o)
                              init_hwinfo.o (hwidev_add_timer)
C:/Users/jukken/rpi4_hyp_803/src/hardware/startup/boards/../../../../install/aarch64le/usr/lib\libstartup.a(hwitag_add_common.o)
                              init_hwinfo.o (hwitag_add_common)
C:/Users/jukken/rpi4_hyp_803/src/hardware/startup/boards/../../../../install/aarch64le/usr/lib\libstartup.a(hwitag_add_inputclk.o)
                              C:/Users/jukken/rpi4_hyp_803/src/hardware/startup/boards/../../../../install/aarch64le/usr/lib\libstartup.a(hwidev_add_enet.o) (hwitag_add_inputclk)
C:/Users/jukken/rpi4_hyp_803/src/hardware/startup/boards/../../../../install/aarch64le/usr/lib\libstartup.a(hwitag_add_irq.o)
                              C:/Users/jukken/rpi4_hyp_803/src/hardware/startup/boards/../../../../install/aarch64le/usr/lib\libstartup.a(hwitag_add_common.o) (hwitag_add_irq)
C:/Users/jukken/rpi4_hyp_803/src/hardware/startup/boards/../../../../install/aarch64le/usr/lib\libstartup.a(hwitag_add_location.o)
                              C:/Users/jukken/rpi4_hyp_803/src/hardware/startup/boards/../../../../install/aarch64le/usr/lib\libstartup.a(hwitag_add_common.o) (hwitag_add_location)
C:/Users/jukken/rpi4_hyp_803/src/hardware/startup/boards/../../../../install/aarch64le/usr/lib\libstartup.a(hwitag_add_nicaddr.o)
                              init_hwinfo.o (hwitag_add_nicaddr)
C:/Users/jukken/rpi4_hyp_803/src/hardware/startup/boards/../../../../install/aarch64le/usr/lib\libstartup.a(hwitag_add_nicphyaddr.o)
                              C:/Users/jukken/rpi4_hyp_803/src/hardware/startup/boards/../../../../install/aarch64le/usr/lib\libstartup.a(hwidev_add_enet.o) (hwitag_add_nicphyaddr)
C:/Users/jukken/rpi4_hyp_803/src/hardware/startup/boards/../../../../install/aarch64le/usr/lib\libstartup.a(hwitag_add_regname.o)
                              init_hwinfo.o (hwitag_add_regname)
C:/Users/jukken/rpi4_hyp_803/src/hardware/startup/boards/../../../../install/aarch64le/usr/lib\libstartup.a(hwitag_set_inputclk.o)
                              init_hwinfo.o (hwitag_set_inputclk)
C:/Users/jukken/rpi4_hyp_803/src/hardware/startup/boards/../../../../install/aarch64le/usr/lib\libstartup.a(hwitag_set_ivec.o)
                              init_hwinfo.o (hwitag_set_ivec)
C:/Users/jukken/rpi4_hyp_803/src/hardware/startup/boards/../../../../install/aarch64le/usr/lib\libstartup.a(hypervisor_setup.o)
                              C:/Users/jukken/rpi4_hyp_803/src/hardware/startup/boards/../../../../install/aarch64le/usr/lib\libstartup.a(cpu_common_options.o) (hypervisor_set_options)
C:/Users/jukken/rpi4_hyp_803/src/hardware/startup/boards/../../../../install/aarch64le/usr/lib\libstartup.a(init_cacheattr.o)
                              main.o (init_cacheattr)
C:/Users/jukken/rpi4_hyp_803/src/hardware/startup/boards/../../../../install/aarch64le/usr/lib\libstartup.a(init_cpuinfo.o)
                              main.o (init_cpuinfo)
C:/Users/jukken/rpi4_hyp_803/src/hardware/startup/boards/../../../../install/aarch64le/usr/lib\libstartup.a(init_mmu.o)
                              main.o (init_mmu)
C:/Users/jukken/rpi4_hyp_803/src/hardware/startup/boards/../../../../install/aarch64le/usr/lib\libstartup.a(init_qtime.o)
                              main.o (init_qtime)
C:/Users/jukken/rpi4_hyp_803/src/hardware/startup/boards/../../../../install/aarch64le/usr/lib\libstartup.a(init_qtime_v8gt.o)
                              C:/Users/jukken/rpi4_hyp_803/src/hardware/startup/boards/../../../../install/aarch64le/usr/lib\libstartup.a(init_qtime.o) (init_qtime_v8gt)
C:/Users/jukken/rpi4_hyp_803/src/hardware/startup/boards/../../../../install/aarch64le/usr/lib\libstartup.a(init_smp.o)
                              main.o (init_smp)
C:/Users/jukken/rpi4_hyp_803/src/hardware/startup/boards/../../../../install/aarch64le/usr/lib\libstartup.a(init_system_private.o)
                              main.o (init_system_private)
C:/Users/jukken/rpi4_hyp_803/src/hardware/startup/boards/../../../../install/aarch64le/usr/lib\libstartup.a(invert_timer_freq.o)
                              C:/Users/jukken/rpi4_hyp_803/src/hardware/startup/boards/../../../../install/aarch64le/usr/lib\libstartup.a(init_qtime_v8gt.o) (invert_timer_freq)
C:/Users/jukken/rpi4_hyp_803/src/hardware/startup/boards/../../../../install/aarch64le/usr/lib\libstartup.a(jtag.o)
                              C:/Users/jukken/rpi4_hyp_803/src/hardware/startup/boards/../../../../install/aarch64le/usr/lib\libstartup.a(init_system_private.o) (jtag_reserve_memory)
C:/Users/jukken/rpi4_hyp_803/src/hardware/startup/boards/../../../../install/aarch64le/usr/lib\libstartup.a(kprintf.o)
                              bcm2711_init_raminfo.o (kprintf)
C:/Users/jukken/rpi4_hyp_803/src/hardware/startup/boards/../../../../install/aarch64le/usr/lib\libstartup.a(load_ifs.o)
                              C:/Users/jukken/rpi4_hyp_803/src/hardware/startup/boards/../../../../install/aarch64le/usr/lib\libstartup.a(init_system_private.o) (load_ifs)
C:/Users/jukken/rpi4_hyp_803/src/hardware/startup/boards/../../../../install/aarch64le/usr/lib\libstartup.a(map_callout_io.o)
                              callout_debug_miniuart.o (callout_io_map)
C:/Users/jukken/rpi4_hyp_803/src/hardware/startup/boards/../../../../install/aarch64le/usr/lib\libstartup.a(map_startup_mem.o)
                              C:/Users/jukken/rpi4_hyp_803/src/hardware/startup/boards/../../../../install/aarch64le/usr/lib\libstartup.a(fdt_init_bootopt.o) (startup_memory_map)
C:/Users/jukken/rpi4_hyp_803/src/hardware/startup/boards/../../../../install/aarch64le/usr/lib\libstartup.a(memcpy.o)
                              init_board_type.o (memcpy)
C:/Users/jukken/rpi4_hyp_803/src/hardware/startup/boards/../../../../install/aarch64le/usr/lib\libstartup.a(memfuncs.o)
                              C:/Users/jukken/rpi4_hyp_803/src/hardware/startup/boards/../../../../install/aarch64le/usr/lib\libstartup.a(load_ifs.o) (copy_memory)
C:/Users/jukken/rpi4_hyp_803/src/hardware/startup/boards/../../../../install/aarch64le/usr/lib\libstartup.a(memmove.o)
                              C:/Users/jukken/rpi4_hyp_803/src/hardware/startup/boards/../../../../install/aarch64le/usr/lib\libstartup.a(bootstrap_cmdline.o) (memmove)
C:/Users/jukken/rpi4_hyp_803/src/hardware/startup/boards/../../../../install/aarch64le/usr/lib\libstartup.a(print_sysp.o)
                              C:/Users/jukken/rpi4_hyp_803/src/hardware/startup/boards/../../../../install/aarch64le/usr/lib\libstartup.a(debug.o) (print_syspage_enable)
C:/Users/jukken/rpi4_hyp_803/src/hardware/startup/boards/../../../../install/aarch64le/usr/lib\libstartup.a(ram.o)
                              C:/Users/jukken/rpi4_hyp_803/src/hardware/startup/boards/../../../../install/aarch64le/usr/lib\libstartup.a(load_ifs.o) (find_ram)
C:/Users/jukken/rpi4_hyp_803/src/hardware/startup/boards/../../../../install/aarch64le/usr/lib\libstartup.a(restore_ifs.o)
                              C:/Users/jukken/rpi4_hyp_803/src/hardware/startup/boards/../../../../install/aarch64le/usr/lib\libstartup.a(init_system_private.o) (load_ifs2_nonbootable)
C:/Users/jukken/rpi4_hyp_803/src/hardware/startup/boards/../../../../install/aarch64le/usr/lib\libstartup.a(smp_start.o)
                              C:/Users/jukken/rpi4_hyp_803/src/hardware/startup/boards/../../../../install/aarch64le/usr/lib\libstartup.a(init_smp.o) (smp_start)
C:/Users/jukken/rpi4_hyp_803/src/hardware/startup/boards/../../../../install/aarch64le/usr/lib\libstartup.a(ssp.o)
                              (__ssp_fail)
C:/Users/jukken/rpi4_hyp_803/src/hardware/startup/boards/../../../../install/aarch64le/usr/lib\libstartup.a(startnext.o)
                              C:/Users/jukken/rpi4_hyp_803/src/hardware/startup/boards/../../../../install/aarch64le/usr/lib\libstartup.a(_main.o) (startnext)
C:/Users/jukken/rpi4_hyp_803/src/hardware/startup/boards/../../../../install/aarch64le/usr/lib\libstartup.a(strings.o)
                              C:/Users/jukken/rpi4_hyp_803/src/hardware/startup/boards/../../../../install/aarch64le/usr/lib\libstartup.a(init_system_private.o) (find_typed_string)
C:/Users/jukken/rpi4_hyp_803/src/hardware/startup/boards/../../../../install/aarch64le/usr/lib\libstartup.a(strtoul.o)
                              hw_ser_miniuart.o (strtopaddr)
C:/Users/jukken/rpi4_hyp_803/src/hardware/startup/boards/../../../../install/aarch64le/usr/lib\libstartup.a(syspage_memory.o)
                              C:/Users/jukken/rpi4_hyp_803/src/hardware/startup/boards/../../../../install/aarch64le/usr/lib\libstartup.a(add_interrupt.o) (grow_syspage_section)
C:/Users/jukken/rpi4_hyp_803/src/hardware/startup/boards/../../../../install/aarch64le/usr/lib\libstartup.a(tweak_cmdline.o)
                              C:/Users/jukken/rpi4_hyp_803/src/hardware/startup/boards/../../../../install/aarch64le/usr/lib\libstartup.a(_main.o) (tweak_cmdline)
C:/Users/jukken/rpi4_hyp_803/src/hardware/startup/boards/../../../../install/aarch64le/usr/lib\libstartup.a(uncompress.o)
                              C:/Users/jukken/rpi4_hyp_803/src/hardware/startup/boards/../../../../install/aarch64le/usr/lib\libstartup.a(load_ifs.o) (uncompress)
C:/Users/jukken/rpi4_hyp_803/src/hardware/startup/boards/../../../../install/aarch64le/usr/lib\libstartup.a(uncompress_ucl.o)
                              C:/Users/jukken/rpi4_hyp_803/src/hardware/startup/boards/../../../../install/aarch64le/usr/lib\libstartup.a(uncompress.o) (uncompress_ucl)
C:/Users/jukken/rpi4_hyp_803/src/hardware/startup/boards/../../../../install/aarch64le/usr/lib\libstartup.a(vbar_default.o)
                              C:/Users/jukken/rpi4_hyp_803/src/hardware/startup/boards/../../../../install/aarch64le/usr/lib\libstartup.a(cstart.o) (vbar_default)
C:/Users/jukken/rpi4_hyp_803/src/hardware/startup/boards/../../../../install/aarch64le/usr/lib\libstartup.a(_start_el1.o)
                              C:/Users/jukken/rpi4_hyp_803/src/hardware/startup/boards/../../../../install/aarch64le/usr/lib\libstartup.a(cstart.o) (_start_el2_or_el1)
C:/Users/jukken/rpi4_hyp_803/src/hardware/startup/boards/../../../../install/aarch64le/usr/lib\libstartup.a(aarch64_cache_flush.o)
                              C:/Users/jukken/rpi4_hyp_803/src/hardware/startup/boards/../../../../install/aarch64le/usr/lib\libstartup.a(cstart.o) (aarch64_cache_flush)
C:/Users/jukken/rpi4_hyp_803/src/hardware/startup/boards/../../../../install/aarch64le/usr/lib\libstartup.a(aarch64_cpuid.o)
                              C:/Users/jukken/rpi4_hyp_803/src/hardware/startup/boards/../../../../install/aarch64le/usr/lib\libstartup.a(cpu_startup.o) (aarch64_cpuid)
C:/Users/jukken/rpi4_hyp_803/src/hardware/startup/boards/../../../../install/aarch64le/usr/lib\libstartup.a(aarch64_cpuspeed.o)
                              C:/Users/jukken/rpi4_hyp_803/src/hardware/startup/boards/../../../../install/aarch64le/usr/lib\libstartup.a(init_cpuinfo.o) (aarch64_cpuspeed)
C:/Users/jukken/rpi4_hyp_803/src/hardware/startup/boards/../../../../install/aarch64le/usr/lib\libstartup.a(aarch64_map.o)
                              C:/Users/jukken/rpi4_hyp_803/src/hardware/startup/boards/../../../../install/aarch64le/usr/lib\libstartup.a(init_mmu.o) (aarch64_map_init)
C:/Users/jukken/rpi4_hyp_803/src/hardware/startup/boards/../../../../install/aarch64le/usr/lib\libstartup.a(add_cache.o)
                              C:/Users/jukken/rpi4_hyp_803/src/hardware/startup/boards/../../../../install/aarch64le/usr/lib\libstartup.a(init_cpuinfo.o) (add_cache_ways)
C:/Users/jukken/rpi4_hyp_803/src/hardware/startup/boards/../../../../install/aarch64le/usr/lib\libstartup.a(alloc_qtime.o)
                              C:/Users/jukken/rpi4_hyp_803/src/hardware/startup/boards/../../../../install/aarch64le/usr/lib\libstartup.a(init_qtime_v8gt.o) (alloc_qtime)
C:/Users/jukken/rpi4_hyp_803/src/hardware/startup/boards/../../../../install/aarch64le/usr/lib\libstartup.a(ap_fail.o)
                              C:/Users/jukken/rpi4_hyp_803/src/hardware/startup/boards/../../../../install/aarch64le/usr/lib\libstartup.a(init_smp.o) (ap_fail)
C:/Users/jukken/rpi4_hyp_803/src/hardware/startup/boards/../../../../install/aarch64le/usr/lib\libstartup.a(as_add.o)
                              C:/Users/jukken/rpi4_hyp_803/src/hardware/startup/boards/../../../../install/aarch64le/usr/lib\libstartup.a(as_add_containing.o) (as_add)
C:/Users/jukken/rpi4_hyp_803/src/hardware/startup/boards/../../../../install/aarch64le/usr/lib\libstartup.a(as_add64.o)
                              C:/Users/jukken/rpi4_hyp_803/src/hardware/startup/boards/../../../../install/aarch64le/usr/lib\libstartup.a(gic_v2.o) (as_add64)
C:/Users/jukken/rpi4_hyp_803/src/hardware/startup/boards/../../../../install/aarch64le/usr/lib\libstartup.a(as_default.o)
                              C:/Users/jukken/rpi4_hyp_803/src/hardware/startup/boards/../../../../install/aarch64le/usr/lib\libstartup.a(ram.o) (as_default)
C:/Users/jukken/rpi4_hyp_803/src/hardware/startup/boards/../../../../install/aarch64le/usr/lib\libstartup.a(as_find.o)
                              C:/Users/jukken/rpi4_hyp_803/src/hardware/startup/boards/../../../../install/aarch64le/usr/lib\libstartup.a(gic_v2.o) (as_find)
C:/Users/jukken/rpi4_hyp_803/src/hardware/startup/boards/../../../../install/aarch64le/usr/lib\libstartup.a(board_sysctl.o)
                              C:/Users/jukken/rpi4_hyp_803/src/hardware/startup/boards/../../../../install/aarch64le/usr/lib\libstartup.a(load_ifs.o) (board_enable_caches)
C:/Users/jukken/rpi4_hyp_803/src/hardware/startup/boards/../../../../install/aarch64le/usr/lib\libstartup.a(boot_regs.o)
                              C:/Users/jukken/rpi4_hyp_803/src/hardware/startup/boards/../../../../install/aarch64le/usr/lib\libstartup.a(cstart.o) (boot_regs)
C:/Users/jukken/rpi4_hyp_803/src/hardware/startup/boards/../../../../install/aarch64le/usr/lib\libstartup.a(callout_cache_armv8.o)
                              C:/Users/jukken/rpi4_hyp_803/src/hardware/startup/boards/../../../../install/aarch64le/usr/lib\libstartup.a(init_cpuinfo.o) (cache_armv8_icache)
C:/Users/jukken/rpi4_hyp_803/src/hardware/startup/boards/../../../../install/aarch64le/usr/lib\libstartup.a(callout_interrupt_gic_v2.o)
                              C:/Users/jukken/rpi4_hyp_803/src/hardware/startup/boards/../../../../install/aarch64le/usr/lib\libstartup.a(gic_v2.o) (interrupt_id_gic_v2_ppi)
C:/Users/jukken/rpi4_hyp_803/src/hardware/startup/boards/../../../../install/aarch64le/usr/lib\libstartup.a(callout_smp_spin.o)
                              C:/Users/jukken/rpi4_hyp_803/src/hardware/startup/boards/../../../../install/aarch64le/usr/lib\libstartup.a(init_smp.o) (smp_spin)
C:/Users/jukken/rpi4_hyp_803/src/hardware/startup/boards/../../../../install/aarch64le/usr/lib\libstartup.a(cpu_startnext.o)
                              C:/Users/jukken/rpi4_hyp_803/src/hardware/startup/boards/../../../../install/aarch64le/usr/lib\libstartup.a(smp_start.o) (cpu_startnext)
C:/Users/jukken/rpi4_hyp_803/src/hardware/startup/boards/../../../../install/aarch64le/usr/lib\libstartup.a(cpu_syspage_memory.o)
                              C:/Users/jukken/rpi4_hyp_803/src/hardware/startup/boards/../../../../install/aarch64le/usr/lib\libstartup.a(syspage_memory.o) (cpu_init_syspage_memory)
C:/Users/jukken/rpi4_hyp_803/src/hardware/startup/boards/../../../../install/aarch64le/usr/lib\libstartup.a(cpuid_a35.o)
                              C:/Users/jukken/rpi4_hyp_803/src/hardware/startup/boards/../../../../install/aarch64le/usr/lib\libstartup.a(aarch64_cpuid.o) (cpuid_a35)
C:/Users/jukken/rpi4_hyp_803/src/hardware/startup/boards/../../../../install/aarch64le/usr/lib\libstartup.a(cpuid_a53.o)
                              C:/Users/jukken/rpi4_hyp_803/src/hardware/startup/boards/../../../../install/aarch64le/usr/lib\libstartup.a(aarch64_cpuid.o) (cpuid_a53)
C:/Users/jukken/rpi4_hyp_803/src/hardware/startup/boards/../../../../install/aarch64le/usr/lib\libstartup.a(cpuid_a55.o)
                              C:/Users/jukken/rpi4_hyp_803/src/hardware/startup/boards/../../../../install/aarch64le/usr/lib\libstartup.a(aarch64_cpuid.o) (cpuid_a55)
C:/Users/jukken/rpi4_hyp_803/src/hardware/startup/boards/../../../../install/aarch64le/usr/lib\libstartup.a(cpuid_a57.o)
                              C:/Users/jukken/rpi4_hyp_803/src/hardware/startup/boards/../../../../install/aarch64le/usr/lib\libstartup.a(init_cpuinfo.o) (cpuid_a57)
C:/Users/jukken/rpi4_hyp_803/src/hardware/startup/boards/../../../../install/aarch64le/usr/lib\libstartup.a(cpuid_a72.o)
                              C:/Users/jukken/rpi4_hyp_803/src/hardware/startup/boards/../../../../install/aarch64le/usr/lib\libstartup.a(init_cpuinfo.o) (cpuid_a72)
C:/Users/jukken/rpi4_hyp_803/src/hardware/startup/boards/../../../../install/aarch64le/usr/lib\libstartup.a(cpuid_a720.o)
                              C:/Users/jukken/rpi4_hyp_803/src/hardware/startup/boards/../../../../install/aarch64le/usr/lib\libstartup.a(aarch64_cpuid.o) (cpuid_a720)
C:/Users/jukken/rpi4_hyp_803/src/hardware/startup/boards/../../../../install/aarch64le/usr/lib\libstartup.a(cpuid_a75.o)
                              C:/Users/jukken/rpi4_hyp_803/src/hardware/startup/boards/../../../../install/aarch64le/usr/lib\libstartup.a(aarch64_cpuid.o) (cpuid_a75)
C:/Users/jukken/rpi4_hyp_803/src/hardware/startup/boards/../../../../install/aarch64le/usr/lib\libstartup.a(cpuid_a76.o)
                              C:/Users/jukken/rpi4_hyp_803/src/hardware/startup/boards/../../../../install/aarch64le/usr/lib\libstartup.a(aarch64_cpuid.o) (cpuid_a76)
C:/Users/jukken/rpi4_hyp_803/src/hardware/startup/boards/../../../../install/aarch64le/usr/lib\libstartup.a(cpuid_a78ae.o)
                              C:/Users/jukken/rpi4_hyp_803/src/hardware/startup/boards/../../../../install/aarch64le/usr/lib\libstartup.a(aarch64_cpuid.o) (cpuid_a78ae)
C:/Users/jukken/rpi4_hyp_803/src/hardware/startup/boards/../../../../install/aarch64le/usr/lib\libstartup.a(cpuid_d15.o)
                              C:/Users/jukken/rpi4_hyp_803/src/hardware/startup/boards/../../../../install/aarch64le/usr/lib\libstartup.a(aarch64_cpuid.o) (cpuid_d15)
C:/Users/jukken/rpi4_hyp_803/src/hardware/startup/boards/../../../../install/aarch64le/usr/lib\libstartup.a(cpuid_d20.o)
                              C:/Users/jukken/rpi4_hyp_803/src/hardware/startup/boards/../../../../install/aarch64le/usr/lib\libstartup.a(aarch64_cpuid.o) (cpuid_d20)
C:/Users/jukken/rpi4_hyp_803/src/hardware/startup/boards/../../../../install/aarch64le/usr/lib\libstartup.a(cpuid_n1.o)
                              C:/Users/jukken/rpi4_hyp_803/src/hardware/startup/boards/../../../../install/aarch64le/usr/lib\libstartup.a(aarch64_cpuid.o) (cpuid_n1)
C:/Users/jukken/rpi4_hyp_803/src/hardware/startup/boards/../../../../install/aarch64le/usr/lib\libstartup.a(cpuid_neo_v1.o)
                              C:/Users/jukken/rpi4_hyp_803/src/hardware/startup/boards/../../../../install/aarch64le/usr/lib\libstartup.a(aarch64_cpuid.o) (cpuid_neo_v1)
C:/Users/jukken/rpi4_hyp_803/src/hardware/startup/boards/../../../../install/aarch64le/usr/lib\libstartup.a(cpuid_neo_v2.o)
                              C:/Users/jukken/rpi4_hyp_803/src/hardware/startup/boards/../../../../install/aarch64le/usr/lib\libstartup.a(aarch64_cpuid.o) (cpuid_neo_v2)
C:/Users/jukken/rpi4_hyp_803/src/hardware/startup/boards/../../../../install/aarch64le/usr/lib\libstartup.a(cpuid_v8_aem.o)
                              C:/Users/jukken/rpi4_hyp_803/src/hardware/startup/boards/../../../../install/aarch64le/usr/lib\libstartup.a(aarch64_cpuid.o) (cpuid_v8_aem)
C:/Users/jukken/rpi4_hyp_803/src/hardware/startup/boards/../../../../install/aarch64le/usr/lib\libstartup.a(cpuid_v8_fm.o)
                              C:/Users/jukken/rpi4_hyp_803/src/hardware/startup/boards/../../../../install/aarch64le/usr/lib\libstartup.a(aarch64_cpuid.o) (cpuid_v8_fm)
C:/Users/jukken/rpi4_hyp_803/src/hardware/startup/boards/../../../../install/aarch64le/usr/lib\libstartup.a(cpuid_x2.o)
                              C:/Users/jukken/rpi4_hyp_803/src/hardware/startup/boards/../../../../install/aarch64le/usr/lib\libstartup.a(aarch64_cpuid.o) (cpuid_x2)
C:/Users/jukken/rpi4_hyp_803/src/hardware/startup/boards/../../../../install/aarch64le/usr/lib\libstartup.a(cpuid_x4.o)
                              C:/Users/jukken/rpi4_hyp_803/src/hardware/startup/boards/../../../../install/aarch64le/usr/lib\libstartup.a(aarch64_cpuid.o) (cpuid_x4)
C:/Users/jukken/rpi4_hyp_803/src/hardware/startup/boards/../../../../install/aarch64le/usr/lib\libstartup.a(cpuid_x925.o)
                              C:/Users/jukken/rpi4_hyp_803/src/hardware/startup/boards/../../../../install/aarch64le/usr/lib\libstartup.a(aarch64_cpuid.o) (cpuid_x925)
C:/Users/jukken/rpi4_hyp_803/src/hardware/startup/boards/../../../../install/aarch64le/usr/lib\libstartup.a(crash_done.o)
                              C:/Users/jukken/rpi4_hyp_803/src/hardware/startup/boards/../../../../install/aarch64le/usr/lib\libstartup.a(kprintf.o) (crash_done)
C:/Users/jukken/rpi4_hyp_803/src/hardware/startup/boards/../../../../install/aarch64le/usr/lib\libstartup.a(dummy_print_char.o)
                              C:/Users/jukken/rpi4_hyp_803/src/hardware/startup/boards/../../../../install/aarch64le/usr/lib\libstartup.a(kprintf.o) (dummy_print_char)
C:/Users/jukken/rpi4_hyp_803/src/hardware/startup/boards/../../../../install/aarch64le/usr/lib\libstartup.a(elf.o)
                              C:/Users/jukken/rpi4_hyp_803/src/hardware/startup/boards/../../../../install/aarch64le/usr/lib\libstartup.a(init_system_private.o) (load_elf)
C:/Users/jukken/rpi4_hyp_803/src/hardware/startup/boards/../../../../install/aarch64le/usr/lib\libstartup.a(elf32.o)
                              C:/Users/jukken/rpi4_hyp_803/src/hardware/startup/boards/../../../../install/aarch64le/usr/lib\libstartup.a(elf.o) (load_elf32)
C:/Users/jukken/rpi4_hyp_803/src/hardware/startup/boards/../../../../install/aarch64le/usr/lib\libstartup.a(elf64.o)
                              C:/Users/jukken/rpi4_hyp_803/src/hardware/startup/boards/../../../../install/aarch64le/usr/lib\libstartup.a(elf.o) (load_elf64)
C:/Users/jukken/rpi4_hyp_803/src/hardware/startup/boards/../../../../install/aarch64le/usr/lib\libstartup.a(elf_map.o)
                              C:/Users/jukken/rpi4_hyp_803/src/hardware/startup/boards/../../../../install/aarch64le/usr/lib\libstartup.a(cpu_syspage_memory.o) (elf_map)
C:/Users/jukken/rpi4_hyp_803/src/hardware/startup/boards/../../../../install/aarch64le/usr/lib\libstartup.a(hwi_add_device.o)
                              C:/Users/jukken/rpi4_hyp_803/src/hardware/startup/boards/../../../../install/aarch64le/usr/lib\libstartup.a(hwi_add_nanospin.o) (hwi_add_device)
C:/Users/jukken/rpi4_hyp_803/src/hardware/startup/boards/../../../../install/aarch64le/usr/lib\libstartup.a(hwi_default.o)
                              C:/Users/jukken/rpi4_hyp_803/src/hardware/startup/boards/../../../../install/aarch64le/usr/lib\libstartup.a(syspage_memory.o) (hwi_default)
C:/Users/jukken/rpi4_hyp_803/src/hardware/startup/boards/../../../../install/aarch64le/usr/lib\libstartup.a(hypervisor.o)
                              C:/Users/jukken/rpi4_hyp_803/src/hardware/startup/boards/../../../../install/aarch64le/usr/lib\libstartup.a(hypervisor_setup.o) (arch_hypervisor_validate_flags)
C:/Users/jukken/rpi4_hyp_803/src/hardware/startup/boards/../../../../install/aarch64le/usr/lib\libstartup.a(hypervisor_enable.o)
                              C:/Users/jukken/rpi4_hyp_803/src/hardware/startup/boards/../../../../install/aarch64le/usr/lib\libstartup.a(hypervisor.o) (hyp_enable_el2_host)
C:/Users/jukken/rpi4_hyp_803/src/hardware/startup/boards/../../../../install/aarch64le/usr/lib\libstartup.a(init_mitigation_mem.o)
                              C:/Users/jukken/rpi4_hyp_803/src/hardware/startup/boards/../../../../install/aarch64le/usr/lib\libstartup.a(init_system_private.o) (init_mitigation_mem)
C:/Users/jukken/rpi4_hyp_803/src/hardware/startup/boards/../../../../install/aarch64le/usr/lib\libstartup.a(rtc_time.o)
                              C:/Users/jukken/rpi4_hyp_803/src/hardware/startup/boards/../../../../install/aarch64le/usr/lib\libstartup.a(alloc_qtime.o) (rtc_time)
C:/Users/jukken/rpi4_hyp_803/src/hardware/startup/boards/../../../../install/aarch64le/usr/lib\libstartup.a(startup_info.o)
                              C:/Users/jukken/rpi4_hyp_803/src/hardware/startup/boards/../../../../install/aarch64le/usr/lib\libstartup.a(alloc_qtime.o) (find_startup_info)
C:/Users/jukken/rpi4_hyp_803/src/hardware/startup/boards/../../../../install/aarch64le/usr/lib\libstartup.a(vstart.o)
                              C:/Users/jukken/rpi4_hyp_803/src/hardware/startup/boards/../../../../install/aarch64le/usr/lib\libstartup.a(cpu_startnext.o) (vstart)
C:/Users/jukken/qnx803/target/qnx/aarch64le/usr/lib\libucl.a(n2b_d.o)
                              C:/Users/jukken/rpi4_hyp_803/src/hardware/startup/boards/../../../../install/aarch64le/usr/lib\libstartup.a(uncompress_ucl.o) (ucl_nrv2b_decompress_8)
C:/Users/jukken/qnx803/target/qnx/aarch64le/usr/lib\libdrvr.a(hwi_find_unit.o)
                              init_hwinfo.o (hwi_find_unit)
C:/Users/jukken/qnx803/target/qnx/aarch64le/usr/lib\libdrvr.a(hwi_tag_find.o)
                              C:/Users/jukken/rpi4_hyp_803/src/hardware/startup/boards/../../../../install/aarch64le/usr/lib\libstartup.a(hwitag_set_inputclk.o) (hwi_tag_find)
C:/Users/jukken/qnx803/target/qnx/aarch64le/usr/lib\libdrvr.a(hwi_find_bus.o)
                              C:/Users/jukken/qnx803/target/qnx/aarch64le/usr/lib\libdrvr.a(hwi_find_unit.o) (hwi_find_bus)
C:/Users/jukken/qnx803/target/qnx/aarch64le/usr/lib\libdrvr.a(hwi_find_device.o)
                              C:/Users/jukken/qnx803/target/qnx/aarch64le/usr/lib\libdrvr.a(hwi_find_unit.o) (hwi_find_device)
C:/Users/jukken/qnx803/target/qnx/aarch64le/usr/lib\libdrvr.a(hwi_find.o)
                              C:/Users/jukken/qnx803/target/qnx/aarch64le/usr/lib\libdrvr.a(hwi_find_bus.o) (hwi_find)
C:/Users/jukken/qnx803/target/qnx/aarch64le/usr/lib\libfdt.a(fdt.o)
                              C:/Users/jukken/rpi4_hyp_803/src/hardware/startup/boards/../../../../install/aarch64le/usr/lib\libstartup.a(fdt_init_bootopt.o) (fdt_check_header)
C:/Users/jukken/qnx803/target/qnx/aarch64le/usr/lib\libfdt.a(fdt_ro.o)
                              init_hwinfo.o (fdt_get_property)
C:/Users/jukken/qnx803/target/qnx/aarch64le/lib\libc.a(hwi_find_item.o)
                              C:/Users/jukken/rpi4_hyp_803/src/hardware/startup/boards/../../../../install/aarch64le/usr/lib\libstartup.a(hwidev_add.o) (hwi_find_item)
C:/Users/jukken/qnx803/target/qnx/aarch64le/lib\libc.a(hwi_next_tag.o)
                              C:/Users/jukken/qnx803/target/qnx/aarch64le/usr/lib\libdrvr.a(hwi_tag_find.o) (hwi_next_tag)
C:/Users/jukken/qnx803/target/qnx/aarch64le/lib\libc.a(hwi_off2tag.o)
                              C:/Users/jukken/rpi4_hyp_803/src/hardware/startup/boards/../../../../install/aarch64le/usr/lib\libstartup.a(hwi_alloc.o) (hwi_off2tag)
C:/Users/jukken/qnx803/target/qnx/aarch64le/lib\libc.a(hwi_tag2off.o)
                              C:/Users/jukken/rpi4_hyp_803/src/hardware/startup/boards/../../../../install/aarch64le/usr/lib\libstartup.a(hwidev_add.o) (hwi_tag2off)
C:/Users/jukken/qnx803/target/qnx/aarch64le/lib\libc.a(memchr.o)
                              C:/Users/jukken/qnx803/target/qnx/aarch64le/usr/lib\libfdt.a(fdt_ro.o) (memchr)
C:/Users/jukken/qnx803/target/qnx/aarch64le/lib\libc.a(memcmp.o)
                              C:/Users/jukken/rpi4_hyp_803/src/hardware/startup/boards/../../../../install/aarch64le/usr/lib\libstartup.a(common_options.o) (memcmp)
C:/Users/jukken/qnx803/target/qnx/aarch64le/lib\libc.a(memset.o)
                              init_intrinfo.o (memset)
C:/Users/jukken/qnx803/target/qnx/aarch64le/lib\libc.a(strchr.o)
                              C:/Users/jukken/rpi4_hyp_803/src/hardware/startup/boards/../../../../install/aarch64le/usr/lib\libstartup.a(common_options.o) (strchr)
C:/Users/jukken/qnx803/target/qnx/aarch64le/lib\libc.a(strcmp.o)
                              C:/Users/jukken/rpi4_hyp_803/src/hardware/startup/boards/../../../../install/aarch64le/usr/lib\libstartup.a(as_find_containing.o) (strcmp)
C:/Users/jukken/qnx803/target/qnx/aarch64le/lib\libc.a(strlcpy.o)
                              C:/Users/jukken/rpi4_hyp_803/src/hardware/startup/boards/../../../../install/aarch64le/usr/lib\libstartup.a(strings.o) (strlcpy)
C:/Users/jukken/qnx803/target/qnx/aarch64le/lib\libc.a(strlen.o)
                              C:/Users/jukken/rpi4_hyp_803/src/hardware/startup/boards/../../../../install/aarch64le/usr/lib\libstartup.a(bootstrap_cmdline.o) (strlen)
C:/Users/jukken/qnx803/target/qnx/aarch64le/lib\libc.a(strnlen.o)
                              C:/Users/jukken/qnx803/target/qnx/aarch64le/usr/lib\libfdt.a(fdt_ro.o) (strnlen)
C:/Users/jukken/qnx803/target/qnx/aarch64le/lib\libc.a(strrchr.o)
                              C:/Users/jukken/qnx803/target/qnx/aarch64le/usr/lib\libfdt.a(fdt_ro.o) (strrchr)
C:/Users/jukken/qnx803/target/qnx/aarch64le/lib\libc.a(strtol.o)
                              main.o (strtol)
C:/Users/jukken/qnx803/target/qnx/aarch64le/lib\libc.a(__progname.o)
                              C:/Users/jukken/rpi4_hyp_803/src/hardware/startup/boards/../../../../install/aarch64le/usr/lib\libstartup.a(ssp.o) (__progname)
C:/Users/jukken/qnx803/target/qnx/aarch64le/lib\libc.a(_ssp.o)
                              bcm2711_init_board.o (__stack_chk_fail)
C:/Users/jukken/qnx803/target/qnx/aarch64le/lib\libc.a(__stack_chk_guard.o)
                              bcm2711_init_board.o (__stack_chk_guard)
C:/Users/jukken/qnx803/target/qnx/aarch64le/lib\libc.a(getsubopt.o)
                              C:/Users/jukken/rpi4_hyp_803/src/hardware/startup/boards/../../../../install/aarch64le/usr/lib\libstartup.a(cpu_common_options.o) (getsubopt)
C:/Users/jukken/qnx803/target/qnx/aarch64le/lib\libc.a(xstoint.o)
                              C:/Users/jukken/qnx803/target/qnx/aarch64le/lib\libc.a(strtol.o) (_Stoint)
C:/Users/jukken/qnx803/target/qnx/aarch64le/lib\libc.a(strncmp.o)
                              C:/Users/jukken/qnx803/target/qnx/aarch64le/lib\libc.a(getsubopt.o) (strncmp)
C:/Users/jukken/qnx803/target/qnx/aarch64le/lib\libc.a(xctype.o)
                              C:/Users/jukken/qnx803/target/qnx/aarch64le/lib\libc.a(xstoint.o) (_Ctype)

There are no discarded input sections

Memory Configuration

Name             Origin             Length             Attributes
*default*        0x0000000000000000 0xffffffffffffffff

Linker script and memory map

LOAD _start.o
LOAD bcm2711_init_board.o
LOAD bcm2711_init_raminfo.o
LOAD board_smp.o
LOAD callout_debug_miniuart.o
LOAD callout_interrupt_bcm2711_msi.o
LOAD callout_reboot_bcm2711.o
LOAD hw_ser_miniuart.o
LOAD init_asinfo.o
LOAD init_board_type.o
LOAD init_hwinfo.o
LOAD init_intrinfo.o
LOAD init_wdt.o
LOAD main.o
LOAD mbox.o
LOAD rpi4_board_config.o
LOAD C:/Users/jukken/rpi4_hyp_803/src/hardware/startup/boards/../../../../install/aarch64le/usr/lib\libstartup.a
LOAD C:/Users/jukken/qnx803/target/qnx/aarch64le/usr/lib\liblzo2.a
LOAD C:/Users/jukken/qnx803/target/qnx/aarch64le/usr/lib\libucl.a
LOAD C:/Users/jukken/qnx803/target/qnx/aarch64le/usr/lib\libdrvr.a
LOAD C:/Users/jukken/qnx803/target/qnx/aarch64le/usr/lib\libfdt.a
LOAD C:/Users/jukken/qnx803/target/qnx/aarch64le/lib\libc.a
LOAD C:/Users/jukken/qnx803/target/qnx/aarch64le/lib\libcS.a
LOAD C:/Users/jukken/qnx803/host/win64/x86_64/usr/lib/gcc/aarch64-unknown-nto-qnx8.0.0/12.2.0\libgcc.a

.interp
 *(.interp)

.note.gnu.build-id
 *(.note.gnu.build-id)

.hash
 *(.hash)

.gnu.hash
 *(.gnu.hash)

.dynsym
 *(.dynsym)

.dynstr
 *(.dynstr)

.gnu.version
 *(.gnu.version)

.gnu.version_d
 *(.gnu.version_d)

.gnu.version_r
 *(.gnu.version_r)

.rela.init
 *(.rela.init)

.rela.text
 *(.rela.text)

.rela.fini
 *(.rela.fini)

.rela.rodata
 *(.rela.rodata)

.rela.data.rel.ro
 *(.rela.data.rel.ro)

.rela.data
 *(.rela.data)

.rela.tdata
 *(.rela.tdata)

.rela.tbss
 *(.rela.tbss)

.rela.ctors
 *(.rela.ctors)

.rela.dtors
 *(.rela.dtors)

.rela.got
 *(.rela.got)

.rela.bss
 *(.rela.bss)

.rela.ifunc
 *(.rela.ifunc)

.rela.plt
 *(.rela.plt)

.init
 *(SORT_NONE(.init))

.plt
 *(.plt)
 *(.iplt)

.text           0x0000000000000000    0x104f4
 *(.text .stub)
 .text          0x0000000000000000        0x4 _start.o
                0x0000000000000000                _start
 *fill*         0x0000000000000004        0xc 00000000
 .text          0x0000000000000010      0x198 bcm2711_init_board.o
                0x0000000000000010                init_board
 *fill*         0x00000000000001a8        0x8 00000000
 .text          0x00000000000001b0      0x1cc bcm2711_init_raminfo.o
                0x00000000000001b0                bcm2711_init_raminfo
 *fill*         0x000000000000037c        0x4 00000000
 .text          0x0000000000000380       0x74 board_smp.o
                0x0000000000000380                board_smp_num_cpu
                0x0000000000000390                board_smp_init
                0x00000000000003d4                board_smp_start
                0x00000000000003f0                board_smp_adjust_num
 *fill*         0x00000000000003f4        0x4 00000000
 .text          0x00000000000003f8       0xdc callout_debug_miniuart.o
                0x0000000000000438                display_char_miniuart
                0x0000000000000478                poll_key_miniuart
                0x00000000000004b8                break_detect_miniuart
 *fill*         0x00000000000004d4        0xc 00000000
 .text          0x00000000000004e0      0x1a4 callout_interrupt_bcm2711_msi.o
                0x0000000000000558                interrupt_id_bcm2711_msi
                0x00000000000005b8                interrupt_eoi_bcm2711_msi
                0x00000000000005f8                interrupt_mask_bcm2711_msi
                0x0000000000000640                interrupt_unmask_bcm2711_msi
 *fill*         0x0000000000000684        0x4 00000000
 .text          0x0000000000000688       0x98 callout_reboot_bcm2711.o
                0x00000000000006d8                reboot_bcm2711
 .text          0x0000000000000720      0x170 hw_ser_miniuart.o
                0x0000000000000800                init_miniuart
                0x0000000000000870                put_miniuart
 .text          0x0000000000000890        0x4 init_asinfo.o
                0x0000000000000890                init_asinfo
 *fill*         0x0000000000000894        0xc 00000000
 .text          0x00000000000008a0      0x250 init_board_type.o
                0x00000000000008a0                get_soc_name
                0x0000000000000930                get_memory_size
                0x00000000000009b0                get_mfr_name
                0x0000000000000a44                get_board_name
                0x0000000000000ac0                get_board_serial
 .text          0x0000000000000af0      0x2a0 init_hwinfo.o
                0x0000000000000af0                init_hwinfo
 .text          0x0000000000000d90       0xd4 init_intrinfo.o
                0x0000000000000d90                init_intrinfo
 *fill*         0x0000000000000e64        0xc 00000000
 .text          0x0000000000000e70       0x6c init_wdt.o
                0x0000000000000e70                bcm2711_wdt_enable
 *fill*         0x0000000000000edc        0x4 00000000
 .text          0x0000000000000ee0      0x17c main.o
                0x0000000000000f34                cpu_tweak_cmdline
 *fill*         0x000000000000105c        0x4 00000000
 .text          0x0000000000001060      0x498 mbox.o
                0x00000000000010b0                mbox_get_board_revision
                0x00000000000010f0                mbox_get_board_mac_address
                0x0000000000001164                mbox_get_board_serial
                0x00000000000011b0                mbox_get_arm_memory
                0x00000000000011f0                mbox_get_vc_memory
                0x0000000000001230                mbox_get_cmdline
                0x00000000000012a0                mbox_get_power_state
                0x00000000000012e4                mbox_set_power_state
                0x0000000000001330                mbox_get_clock_rate
                0x0000000000001374                mbox_set_clock_rate
                0x00000000000013c0                mbox_get_voltage
                0x0000000000001414                mbox_get_temperature
                0x0000000000001460                mbox_get_expgpio
                0x00000000000014b0                mbox_set_expgpio
 *fill*         0x00000000000014f8        0x8 00000000
 .text          0x0000000000001500       0x24 rpi4_board_config.o
                0x0000000000001500                bcm2711_get_board_config
 *fill*         0x0000000000001524        0xc 00000000
 .text          0x0000000000001530      0x218 C:/Users/jukken/rpi4_hyp_803/src/hardware/startup/boards/../../../../install/aarch64le/usr/lib\libstartup.a(_main.o)
                0x0000000000001534                _main
                0x0000000000001730                __get_errno_ptr
                0x0000000000001734                __stackavail
 *fill*         0x0000000000001748        0x8 00000000
 .text          0x0000000000001750      0x21c C:/Users/jukken/rpi4_hyp_803/src/hardware/startup/boards/../../../../install/aarch64le/usr/lib\libstartup.a(add_interrupt.o)
                0x0000000000001800                add_interrupt
                0x0000000000001900                add_interrupt_array
 *fill*         0x000000000000196c        0x4 00000000
 .text          0x0000000000001970      0x2dc C:/Users/jukken/rpi4_hyp_803/src/hardware/startup/boards/../../../../install/aarch64le/usr/lib\libstartup.a(as_add_containing.o)
                0x0000000000001970                as_add_containing
 *fill*         0x0000000000001c4c        0x4 00000000
 .text          0x0000000000001c50      0x114 C:/Users/jukken/rpi4_hyp_803/src/hardware/startup/boards/../../../../install/aarch64le/usr/lib\libstartup.a(as_find_containing.o)
                0x0000000000001c50                as_find_containing
 *fill*         0x0000000000001d64        0xc 00000000
 .text          0x0000000000001d70       0x10 C:/Users/jukken/rpi4_hyp_803/src/hardware/startup/boards/../../../../install/aarch64le/usr/lib\libstartup.a(as_off2info.o)
                0x0000000000001d70                as_off2info
 .text          0x0000000000001d80        0x4 C:/Users/jukken/rpi4_hyp_803/src/hardware/startup/boards/../../../../install/aarch64le/usr/lib\libstartup.a(board_init.o)
                0x0000000000001d80                board_init
 *fill*         0x0000000000001d84        0xc 00000000
 .text          0x0000000000001d90      0x19c C:/Users/jukken/rpi4_hyp_803/src/hardware/startup/boards/../../../../install/aarch64le/usr/lib\libstartup.a(bootstrap_cmdline.o)
                0x0000000000001f10                bootstrap_arg_adjust
                0x0000000000001f20                bootstrap_env_adjust
 *fill*         0x0000000000001f2c        0x4 00000000
 .text          0x0000000000001f30       0xec C:/Users/jukken/rpi4_hyp_803/src/hardware/startup/boards/../../../../install/aarch64le/usr/lib\libstartup.a(callout_debug_pl011.o)
                0x0000000000001f70                display_char_pl011
                0x0000000000001fb0                poll_key_pl011
                0x0000000000001ff0                break_detect_pl011
 *fill*         0x000000000000201c        0x4 00000000
 .text          0x0000000000002020       0x80 C:/Users/jukken/rpi4_hyp_803/src/hardware/startup/boards/../../../../install/aarch64le/usr/lib\libstartup.a(callout_sendipi_gic_v2.o)
                0x0000000000002048                sendipi_gic_v2
 .text          0x00000000000020a0      0x520 C:/Users/jukken/rpi4_hyp_803/src/hardware/startup/boards/../../../../install/aarch64le/usr/lib\libstartup.a(callouts.o)
                0x0000000000002110                output_callouts
                0x0000000000002180                callout_output_one
                0x00000000000023c0                callout_register_data
                0x0000000000002450                callout_reloc_data
                0x0000000000002490                add_callout
                0x0000000000002510                add_callout_array
 .text          0x00000000000025c0      0x798 C:/Users/jukken/rpi4_hyp_803/src/hardware/startup/boards/../../../../install/aarch64le/usr/lib\libstartup.a(common_options.o)
                0x00000000000026c0                handle_common_option
                0x0000000000002b40                set_debug
                0x0000000000002d10                select_debug
 *fill*         0x0000000000002d58        0x8 00000000
 .text          0x0000000000002d60       0xbc C:/Users/jukken/rpi4_hyp_803/src/hardware/startup/boards/../../../../install/aarch64le/usr/lib\libstartup.a(cpu_cluster_add.o)
                0x0000000000002d60                cpu_cluster_add
 *fill*         0x0000000000002e1c        0x4 00000000
 .text          0x0000000000002e20      0x304 C:/Users/jukken/rpi4_hyp_803/src/hardware/startup/boards/../../../../install/aarch64le/usr/lib\libstartup.a(cpu_common_options.o)
                0x0000000000002e20                cpu_handle_common_option
 *fill*         0x0000000000003124        0xc 00000000
 .text          0x0000000000003130       0x88 C:/Users/jukken/rpi4_hyp_803/src/hardware/startup/boards/../../../../install/aarch64le/usr/lib\libstartup.a(cpu_startup.o)
                0x0000000000003130                aarch64_cpuid_find
                0x0000000000003170                cpu_startup
 .text          0x00000000000031b8       0x40 C:/Users/jukken/rpi4_hyp_803/src/hardware/startup/boards/../../../../install/aarch64le/usr/lib\libstartup.a(cstart.o)
                0x00000000000031b8                cstart
 *fill*         0x00000000000031f8        0x8 00000000
 .text          0x0000000000003200       0x7c C:/Users/jukken/rpi4_hyp_803/src/hardware/startup/boards/../../../../install/aarch64le/usr/lib\libstartup.a(debug.o)
                0x0000000000003200                print_syspage
 *fill*         0x000000000000327c        0x4 00000000
 .text          0x0000000000003280      0x1a4 C:/Users/jukken/rpi4_hyp_803/src/hardware/startup/boards/../../../../install/aarch64le/usr/lib\libstartup.a(fdt_init_bootopt.o)
                0x0000000000003280                fdt_init_bootopt
 .text          0x0000000000003424        0x0 C:/Users/jukken/rpi4_hyp_803/src/hardware/startup/boards/../../../../install/aarch64le/usr/lib\libstartup.a(fdt_vars.o)
 *fill*         0x0000000000003424        0xc 00000000
 .text          0x0000000000003430      0x11c C:/Users/jukken/rpi4_hyp_803/src/hardware/startup/boards/../../../../install/aarch64le/usr/lib\libstartup.a(getopt.o)
                0x0000000000003430                getopt
 *fill*         0x000000000000354c        0x4 00000000
 .text          0x0000000000003550       0x7c C:/Users/jukken/rpi4_hyp_803/src/hardware/startup/boards/../../../../install/aarch64le/usr/lib\libstartup.a(getsize.o)
                0x0000000000003550                getsize
 .text          0x00000000000035cc        0x0 C:/Users/jukken/rpi4_hyp_803/src/hardware/startup/boards/../../../../install/aarch64le/usr/lib\libstartup.a(gic.o)
 *fill*         0x00000000000035cc        0x4 00000000
 .text          0x00000000000035d0      0x484 C:/Users/jukken/rpi4_hyp_803/src/hardware/startup/boards/../../../../install/aarch64le/usr/lib\libstartup.a(gic_v2.o)
                0x0000000000003720                gic_v2_init
                0x0000000000003954                gic_v2_num_spis
                0x0000000000003970                gic_v2_set_intr_trig_mode
 *fill*         0x0000000000003a54        0xc 00000000
 .text          0x0000000000003a60      0x254 C:/Users/jukken/rpi4_hyp_803/src/hardware/startup/boards/../../../../install/aarch64le/usr/lib\libstartup.a(hw_serpl011.o)
                0x0000000000003ba4                init_pl011
                0x0000000000003c90                put_pl011
 *fill*         0x0000000000003cb4        0xc 00000000
 .text          0x0000000000003cc0       0x54 C:/Users/jukken/rpi4_hyp_803/src/hardware/startup/boards/../../../../install/aarch64le/usr/lib\libstartup.a(hwi_add_nanospin.o)
                0x0000000000003cc0                hwi_add_nanospin
 *fill*         0x0000000000003d14        0xc 00000000
 .text          0x0000000000003d20      0x218 C:/Users/jukken/rpi4_hyp_803/src/hardware/startup/boards/../../../../install/aarch64le/usr/lib\libstartup.a(hwi_alloc.o)
                0x0000000000003d20                __hwi_find_string
                0x0000000000003d30                __hwi_base
                0x0000000000003d40                hwi_alloc_tag
                0x0000000000003e20                hwi_alloc_item
                0x0000000000003ee0                hwi_grow_tag
 *fill*         0x0000000000003f38        0x8 00000000
 .text          0x0000000000003f40       0x28 C:/Users/jukken/rpi4_hyp_803/src/hardware/startup/boards/../../../../install/aarch64le/usr/lib\libstartup.a(hwi_find_as.o)
                0x0000000000003f40                hwi_find_as
 *fill*         0x0000000000003f68        0x8 00000000
 .text          0x0000000000003f70       0x84 C:/Users/jukken/rpi4_hyp_803/src/hardware/startup/boards/../../../../install/aarch64le/usr/lib\libstartup.a(hwidev_add.o)
                0x0000000000003f70                hwidev_add
 *fill*         0x0000000000003ff4        0xc 00000000
 .text          0x0000000000004000       0x50 C:/Users/jukken/rpi4_hyp_803/src/hardware/startup/boards/../../../../install/aarch64le/usr/lib\libstartup.a(hwidev_add_dma.o)
                0x0000000000004000                hwidev_add_dma
 .text          0x0000000000004050       0xf8 C:/Users/jukken/rpi4_hyp_803/src/hardware/startup/boards/../../../../install/aarch64le/usr/lib\libstartup.a(hwidev_add_enet.o)
                0x0000000000004050                hwidev_add_enet
 *fill*         0x0000000000004148        0x8 00000000
 .text          0x0000000000004150       0x80 C:/Users/jukken/rpi4_hyp_803/src/hardware/startup/boards/../../../../install/aarch64le/usr/lib\libstartup.a(hwidev_add_timer.o)
                0x0000000000004150                hwidev_add_timer
 .text          0x00000000000041d0      0x144 C:/Users/jukken/rpi4_hyp_803/src/hardware/startup/boards/../../../../install/aarch64le/usr/lib\libstartup.a(hwitag_add_common.o)
                0x00000000000041d0                hwitag_add_common
                0x00000000000042e4                hwitag_add_optstr
 *fill*         0x0000000000004314        0xc 00000000
 .text          0x0000000000004320       0x34 C:/Users/jukken/rpi4_hyp_803/src/hardware/startup/boards/../../../../install/aarch64le/usr/lib\libstartup.a(hwitag_add_inputclk.o)
                0x0000000000004320                hwitag_add_inputclk
 *fill*         0x0000000000004354        0xc 00000000
 .text          0x0000000000004360       0x28 C:/Users/jukken/rpi4_hyp_803/src/hardware/startup/boards/../../../../install/aarch64le/usr/lib\libstartup.a(hwitag_add_irq.o)
                0x0000000000004360                hwitag_add_irq
 *fill*         0x0000000000004388        0x8 00000000
 .text          0x0000000000004390       0x50 C:/Users/jukken/rpi4_hyp_803/src/hardware/startup/boards/../../../../install/aarch64le/usr/lib\libstartup.a(hwitag_add_location.o)
                0x0000000000004390                hwitag_add_location
 .text          0x00000000000043e0       0x48 C:/Users/jukken/rpi4_hyp_803/src/hardware/startup/boards/../../../../install/aarch64le/usr/lib\libstartup.a(hwitag_add_nicaddr.o)
                0x00000000000043e0                hwitag_add_nicaddr
 *fill*         0x0000000000004428        0x8 00000000
 .text          0x0000000000004430       0x28 C:/Users/jukken/rpi4_hyp_803/src/hardware/startup/boards/../../../../install/aarch64le/usr/lib\libstartup.a(hwitag_add_nicphyaddr.o)
                0x0000000000004430                hwitag_add_nicphyaddr
 *fill*         0x0000000000004458        0x8 00000000
 .text          0x0000000000004460       0x40 C:/Users/jukken/rpi4_hyp_803/src/hardware/startup/boards/../../../../install/aarch64le/usr/lib\libstartup.a(hwitag_add_regname.o)
                0x0000000000004460                hwitag_add_regname
 .text          0x00000000000044a0       0x4c C:/Users/jukken/rpi4_hyp_803/src/hardware/startup/boards/../../../../install/aarch64le/usr/lib\libstartup.a(hwitag_set_inputclk.o)
                0x00000000000044a0                hwitag_set_inputclk
 *fill*         0x00000000000044ec        0x4 00000000
 .text          0x00000000000044f0       0xa4 C:/Users/jukken/rpi4_hyp_803/src/hardware/startup/boards/../../../../install/aarch64le/usr/lib\libstartup.a(hwitag_set_ivec.o)
                0x00000000000044f0                hwitag_set_ivec
 *fill*         0x0000000000004594        0xc 00000000
 .text          0x00000000000045a0       0x9c C:/Users/jukken/rpi4_hyp_803/src/hardware/startup/boards/../../../../install/aarch64le/usr/lib\libstartup.a(hypervisor_setup.o)
                0x00000000000045a0                hypervisor_set_options
                0x00000000000045b0                hypervisor_init
                0x0000000000004600                hypervisor_get_required_flags
                0x0000000000004610                hypervisor_syspage_init
 *fill*         0x000000000000463c        0x4 00000000
 .text          0x0000000000004640        0x4 C:/Users/jukken/rpi4_hyp_803/src/hardware/startup/boards/../../../../install/aarch64le/usr/lib\libstartup.a(init_cacheattr.o)
                0x0000000000004640                init_cacheattr
 *fill*         0x0000000000004644        0xc 00000000
 .text          0x0000000000004650      0x858 C:/Users/jukken/rpi4_hyp_803/src/hardware/startup/boards/../../../../install/aarch64le/usr/lib\libstartup.a(init_cpuinfo.o)
                0x0000000000004650                init_one_cpuinfo
                0x0000000000004e24                init_cpuinfo
 *fill*         0x0000000000004ea8        0x8 00000000
 .text          0x0000000000004eb0       0xe8 C:/Users/jukken/rpi4_hyp_803/src/hardware/startup/boards/../../../../install/aarch64le/usr/lib\libstartup.a(init_mmu.o)
                0x0000000000004eb0                init_mmu
 *fill*         0x0000000000004f98        0x8 00000000
 .text          0x0000000000004fa0        0xc C:/Users/jukken/rpi4_hyp_803/src/hardware/startup/boards/../../../../install/aarch64le/usr/lib\libstartup.a(init_qtime.o)
                0x0000000000004fa0                init_qtime
 *fill*         0x0000000000004fac        0x4 00000000
 .text          0x0000000000004fb0       0xb8 C:/Users/jukken/rpi4_hyp_803/src/hardware/startup/boards/../../../../install/aarch64le/usr/lib\libstartup.a(init_qtime_v8gt.o)
                0x0000000000004fd0                init_qtime_v8gt
 *fill*         0x0000000000005068        0x8 00000000
 .text          0x0000000000005070      0x248 C:/Users/jukken/rpi4_hyp_803/src/hardware/startup/boards/../../../../install/aarch64le/usr/lib\libstartup.a(init_smp.o)
                0x0000000000005210                init_smp
 *fill*         0x00000000000052b8        0x8 00000000
 .text          0x00000000000052c0      0x6ec C:/Users/jukken/rpi4_hyp_803/src/hardware/startup/boards/../../../../install/aarch64le/usr/lib\libstartup.a(init_system_private.o)
                0x00000000000052c0                init_system_private
 *fill*         0x00000000000059ac        0x4 00000000
 .text          0x00000000000059b0       0x98 C:/Users/jukken/rpi4_hyp_803/src/hardware/startup/boards/../../../../install/aarch64le/usr/lib\libstartup.a(invert_timer_freq.o)
                0x00000000000059b0                invert_timer_freq
 *fill*         0x0000000000005a48        0x8 00000000
 .text          0x0000000000005a50       0x9c C:/Users/jukken/rpi4_hyp_803/src/hardware/startup/boards/../../../../install/aarch64le/usr/lib\libstartup.a(jtag.o)
                0x0000000000005a50                jtag_reserve_memory
                0x0000000000005aa0                jtag_reserve_syspage_addr
                0x0000000000005ab4                jtag_store_syspage_addr
 *fill*         0x0000000000005aec        0x4 00000000
 .text          0x0000000000005af0      0x70c C:/Users/jukken/rpi4_hyp_803/src/hardware/startup/boards/../../../../install/aarch64le/usr/lib\libstartup.a(kprintf.o)
                0x0000000000005f80                kprintf
                0x0000000000006000                ksprintf
                0x00000000000060b0                ksnprintf
                0x0000000000006180                crash
                0x00000000000061e0                set_print_char
                0x00000000000061f0                get_print_char
 *fill*         0x00000000000061fc        0x4 00000000
 .text          0x0000000000006200      0x174 C:/Users/jukken/rpi4_hyp_803/src/hardware/startup/boards/../../../../install/aarch64le/usr/lib\libstartup.a(load_ifs.o)
                0x0000000000006200                load_ifs
 *fill*         0x0000000000006374        0xc 00000000
 .text          0x0000000000006380       0x14 C:/Users/jukken/rpi4_hyp_803/src/hardware/startup/boards/../../../../install/aarch64le/usr/lib\libstartup.a(map_callout_io.o)
                0x0000000000006380                callout_io_map
 *fill*         0x0000000000006394        0xc 00000000
 .text          0x00000000000063a0       0x14 C:/Users/jukken/rpi4_hyp_803/src/hardware/startup/boards/../../../../install/aarch64le/usr/lib\libstartup.a(map_startup_mem.o)
                0x00000000000063a0                startup_memory_map
                0x00000000000063b0                startup_memory_unmap
 *fill*         0x00000000000063b4        0xc 00000000
 .text          0x00000000000063c0      0x190 C:/Users/jukken/rpi4_hyp_803/src/hardware/startup/boards/../../../../install/aarch64le/usr/lib\libstartup.a(memcpy.o)
                0x00000000000063c0                memcpy
 .text          0x0000000000006550       0x98 C:/Users/jukken/rpi4_hyp_803/src/hardware/startup/boards/../../../../install/aarch64le/usr/lib\libstartup.a(memfuncs.o)
                0x0000000000006550                copy_memory
 *fill*         0x00000000000065e8        0x8 00000000
 .text          0x00000000000065f0       0x50 C:/Users/jukken/rpi4_hyp_803/src/hardware/startup/boards/../../../../install/aarch64le/usr/lib\libstartup.a(memmove.o)
                0x00000000000065f0                memmove
 .text          0x0000000000006640      0xcfc C:/Users/jukken/rpi4_hyp_803/src/hardware/startup/boards/../../../../install/aarch64le/usr/lib\libstartup.a(print_sysp.o)
                0x0000000000007130                print_syspage_enable
                0x00000000000071d4                print_syspage_sections
 *fill*         0x000000000000733c        0x4 00000000
 .text          0x0000000000007340      0xb90 C:/Users/jukken/rpi4_hyp_803/src/hardware/startup/boards/../../../../install/aarch64le/usr/lib\libstartup.a(ram.o)
                0x0000000000007480                find_top_ram_aligned_limit
                0x00000000000075c0                find_top_ram_aligned
                0x00000000000075d0                find_top_ram
                0x00000000000075f0                find_ram_in_range
                0x0000000000007720                find_ram
                0x0000000000007740                alloc_ram
                0x00000000000079a0                calloc_ram
                0x0000000000007a00                add_sysram
                0x0000000000007a94                ws_alloc
                0x0000000000007bc0                avoid_ram
                0x0000000000007c54                add_ram
                0x0000000000007da0                watch_add_ram
                0x0000000000007de0                reserve_ram
 .text          0x0000000000007ed0      0xcc8 C:/Users/jukken/rpi4_hyp_803/src/hardware/startup/boards/../../../../install/aarch64le/usr/lib\libstartup.a(restore_ifs.o)
                0x0000000000007fb0                rifs_restore_ifs2
                0x0000000000008170                rifs_load_ifs2
                0x00000000000082d4                load_ifs2_nonbootable
                0x0000000000008344                rifs_restore_ifs
                0x00000000000088c4                rifs_save_elf32data
                0x0000000000008b34                rifs_set_cksum
 .text          0x0000000000008b98       0x70 C:/Users/jukken/rpi4_hyp_803/src/hardware/startup/boards/../../../../install/aarch64le/usr/lib\libstartup.a(smp_start.o)
                0x0000000000008b98                smp_start
 *fill*         0x0000000000008c08        0x8 00000000
 .text          0x0000000000008c10       0x1c C:/Users/jukken/rpi4_hyp_803/src/hardware/startup/boards/../../../../install/aarch64le/usr/lib\libstartup.a(ssp.o)
                0x0000000000008c10                __ssp_fail
 *fill*         0x0000000000008c2c        0x4 00000000
 .text          0x0000000000008c30       0x84 C:/Users/jukken/rpi4_hyp_803/src/hardware/startup/boards/../../../../install/aarch64le/usr/lib\libstartup.a(startnext.o)
                0x0000000000008c30                startnext
 *fill*         0x0000000000008cb4        0xc 00000000
 .text          0x0000000000008cc0      0x394 C:/Users/jukken/rpi4_hyp_803/src/hardware/startup/boards/../../../../install/aarch64le/usr/lib\libstartup.a(strings.o)
                0x0000000000008cc0                find_typed_string
                0x0000000000008d44                del_typed_string
                0x0000000000008e90                add_typed_string
                0x0000000000008f70                add_string
 *fill*         0x0000000000009054        0xc 00000000
 .text          0x0000000000009060       0xf4 C:/Users/jukken/rpi4_hyp_803/src/hardware/startup/boards/../../../../install/aarch64le/usr/lib\libstartup.a(strtoul.o)
                0x0000000000009060                strtopaddr
                0x0000000000009150                strtoul
 *fill*         0x0000000000009154        0xc 00000000
 .text          0x0000000000009160      0x580 C:/Users/jukken/rpi4_hyp_803/src/hardware/startup/boards/../../../../install/aarch64le/usr/lib\libstartup.a(syspage_memory.o)
                0x0000000000009160                grow_syspage_section
                0x0000000000009260                set_syspage_section
                0x0000000000009290                init_syspage_memory
                0x0000000000009380                reloc_syspage_memory
                0x00000000000093f4                alloc_syspage_memory
                0x00000000000096a0                write_syspage_memory
 .text          0x00000000000096e0        0x4 C:/Users/jukken/rpi4_hyp_803/src/hardware/startup/boards/../../../../install/aarch64le/usr/lib\libstartup.a(tweak_cmdline.o)
                0x00000000000096e0                tweak_cmdline
 *fill*         0x00000000000096e4        0xc 00000000
 .text          0x00000000000096f0       0x88 C:/Users/jukken/rpi4_hyp_803/src/hardware/startup/boards/../../../../install/aarch64le/usr/lib\libstartup.a(uncompress.o)
                0x00000000000096f0                uncompress
 *fill*         0x0000000000009778        0x8 00000000
 .text          0x0000000000009780       0xb4 C:/Users/jukken/rpi4_hyp_803/src/hardware/startup/boards/../../../../install/aarch64le/usr/lib\libstartup.a(uncompress_ucl.o)
                0x0000000000009780                uncompress_ucl
 *fill*         0x0000000000009834      0x7cc 00000000
 .text          0x000000000000a000      0x784 C:/Users/jukken/rpi4_hyp_803/src/hardware/startup/boards/../../../../install/aarch64le/usr/lib\libstartup.a(vbar_default.o)
                0x000000000000a000                vbar_default
 .text          0x000000000000a784      0x164 C:/Users/jukken/rpi4_hyp_803/src/hardware/startup/boards/../../../../install/aarch64le/usr/lib\libstartup.a(_start_el1.o)
                0x000000000000a784                _start_el2_or_el1
                0x000000000000a880                drop_to_el1
                0x000000000000a898                _start_el1
 .text          0x000000000000a8e8       0x90 C:/Users/jukken/rpi4_hyp_803/src/hardware/startup/boards/../../../../install/aarch64le/usr/lib\libstartup.a(aarch64_cache_flush.o)
                0x000000000000a8e8                aarch64_cache_flush
 .text          0x000000000000a978        0x0 C:/Users/jukken/rpi4_hyp_803/src/hardware/startup/boards/../../../../install/aarch64le/usr/lib\libstartup.a(aarch64_cpuid.o)
 *fill*         0x000000000000a978        0x8 00000000
 .text          0x000000000000a980        0x8 C:/Users/jukken/rpi4_hyp_803/src/hardware/startup/boards/../../../../install/aarch64le/usr/lib\libstartup.a(aarch64_cpuspeed.o)
                0x000000000000a980                aarch64_cpuspeed
 *fill*         0x000000000000a988        0x8 00000000
 .text          0x000000000000a990      0x6d4 C:/Users/jukken/rpi4_hyp_803/src/hardware/startup/boards/../../../../install/aarch64le/usr/lib\libstartup.a(aarch64_map.o)
                0x000000000000add0                aarch64_map_init
                0x000000000000aef0                aarch64_map
                0x000000000000af10                elf_vaddr_to_paddr
 *fill*         0x000000000000b064        0xc 00000000
 .text          0x000000000000b070      0x19c C:/Users/jukken/rpi4_hyp_803/src/hardware/startup/boards/../../../../install/aarch64le/usr/lib\libstartup.a(add_cache.o)
                0x000000000000b0e0                add_cache_ways
                0x000000000000b200                add_cache
 *fill*         0x000000000000b20c        0x4 00000000
 .text          0x000000000000b210       0x88 C:/Users/jukken/rpi4_hyp_803/src/hardware/startup/boards/../../../../install/aarch64le/usr/lib\libstartup.a(alloc_qtime.o)
                0x000000000000b210                alloc_qtime
 *fill*         0x000000000000b298        0x8 00000000
 .text          0x000000000000b2a0       0x14 C:/Users/jukken/rpi4_hyp_803/src/hardware/startup/boards/../../../../install/aarch64le/usr/lib\libstartup.a(ap_fail.o)
                0x000000000000b2a0                ap_fail
 *fill*         0x000000000000b2b4        0xc 00000000
 .text          0x000000000000b2c0        0x4 C:/Users/jukken/rpi4_hyp_803/src/hardware/startup/boards/../../../../install/aarch64le/usr/lib\libstartup.a(as_add.o)
                0x000000000000b2c0                as_add
 *fill*         0x000000000000b2c4        0xc 00000000
 .text          0x000000000000b2d0       0xd4 C:/Users/jukken/rpi4_hyp_803/src/hardware/startup/boards/../../../../install/aarch64le/usr/lib\libstartup.a(as_add64.o)
                0x000000000000b2d0                as_add64
 *fill*         0x000000000000b3a4        0xc 00000000
 .text          0x000000000000b3b0       0x38 C:/Users/jukken/rpi4_hyp_803/src/hardware/startup/boards/../../../../install/aarch64le/usr/lib\libstartup.a(as_default.o)
                0x000000000000b3b0                as_default
 *fill*         0x000000000000b3e8        0x8 00000000
 .text          0x000000000000b3f0      0x1c4 C:/Users/jukken/rpi4_hyp_803/src/hardware/startup/boards/../../../../install/aarch64le/usr/lib\libstartup.a(as_find.o)
                0x000000000000b3f0                as_find
 *fill*         0x000000000000b5b4        0xc 00000000
 .text          0x000000000000b5c0       0x48 C:/Users/jukken/rpi4_hyp_803/src/hardware/startup/boards/../../../../install/aarch64le/usr/lib\libstartup.a(board_sysctl.o)
                0x000000000000b5c0                board_mmu_enable
                0x000000000000b5c4                board_mmu_disable
                0x000000000000b5d0                board_alignment_check_enable
                0x000000000000b5d4                board_alignment_check_disable
                0x000000000000b5e0                board_dcache_enable
                0x000000000000b5e4                board_dcache_disable
                0x000000000000b5f0                board_icache_enable
                0x000000000000b5f4                board_icache_disable
                0x000000000000b600                board_enable_caches
                0x000000000000b604                board_disable_caches
 .text          0x000000000000b608        0x0 C:/Users/jukken/rpi4_hyp_803/src/hardware/startup/boards/../../../../install/aarch64le/usr/lib\libstartup.a(boot_regs.o)
 .text          0x000000000000b608       0xd4 C:/Users/jukken/rpi4_hyp_803/src/hardware/startup/boards/../../../../install/aarch64le/usr/lib\libstartup.a(callout_cache_armv8.o)
                0x000000000000b608                cache_armv8_icache
                0x000000000000b670                cache_armv8_dcache
 *fill*         0x000000000000b6dc        0x4 00000000
 .text          0x000000000000b6e0      0x234 C:/Users/jukken/rpi4_hyp_803/src/hardware/startup/boards/../../../../install/aarch64le/usr/lib\libstartup.a(callout_interrupt_gic_v2.o)
                0x000000000000b730                interrupt_id_gic_v2_ppi
                0x000000000000b778                interrupt_id_gic_v2_spi
                0x000000000000b7a0                interrupt_eoi_gic_v2
                0x000000000000b7d0                interrupt_mask_gic_v2_ppi
                0x000000000000b818                interrupt_unmask_gic_v2_ppi
                0x000000000000b860                interrupt_mask_gic_v2_spi
                0x000000000000b8a8                interrupt_unmask_gic_v2_spi
                0x000000000000b8f0                interrupt_config_gic_v2_ppi
 *fill*         0x000000000000b914        0x4 00000000
 .text          0x000000000000b918       0x68 C:/Users/jukken/rpi4_hyp_803/src/hardware/startup/boards/../../../../install/aarch64le/usr/lib\libstartup.a(callout_smp_spin.o)
                0x000000000000b918                smp_spin
 .text          0x000000000000b980       0x74 C:/Users/jukken/rpi4_hyp_803/src/hardware/startup/boards/../../../../install/aarch64le/usr/lib\libstartup.a(cpu_startnext.o)
                0x000000000000b980                cpu_startnext
 *fill*         0x000000000000b9f4        0xc 00000000
 .text          0x000000000000ba00      0x154 C:/Users/jukken/rpi4_hyp_803/src/hardware/startup/boards/../../../../install/aarch64le/usr/lib\libstartup.a(cpu_syspage_memory.o)
                0x000000000000ba00                cpu_init_syspage_memory
                0x000000000000ba10                cpu_alloc_syspage_memory
                0x000000000000bb44                cpu_write_syspage_memory
                0x000000000000bb50                cpu_syspage_remap
 .text          0x000000000000bb54        0x0 C:/Users/jukken/rpi4_hyp_803/src/hardware/startup/boards/../../../../install/aarch64le/usr/lib\libstartup.a(cpuid_a35.o)
 .text          0x000000000000bb54        0x0 C:/Users/jukken/rpi4_hyp_803/src/hardware/startup/boards/../../../../install/aarch64le/usr/lib\libstartup.a(cpuid_a53.o)
 .text          0x000000000000bb54        0x0 C:/Users/jukken/rpi4_hyp_803/src/hardware/startup/boards/../../../../install/aarch64le/usr/lib\libstartup.a(cpuid_a55.o)
 .text          0x000000000000bb54        0x0 C:/Users/jukken/rpi4_hyp_803/src/hardware/startup/boards/../../../../install/aarch64le/usr/lib\libstartup.a(cpuid_a57.o)
 .text          0x000000000000bb54        0x0 C:/Users/jukken/rpi4_hyp_803/src/hardware/startup/boards/../../../../install/aarch64le/usr/lib\libstartup.a(cpuid_a72.o)
 .text          0x000000000000bb54        0x0 C:/Users/jukken/rpi4_hyp_803/src/hardware/startup/boards/../../../../install/aarch64le/usr/lib\libstartup.a(cpuid_a720.o)
 *fill*         0x000000000000bb54        0xc 00000000
 .text          0x000000000000bb60        0x4 C:/Users/jukken/rpi4_hyp_803/src/hardware/startup/boards/../../../../install/aarch64le/usr/lib\libstartup.a(cpuid_a75.o)
 *fill*         0x000000000000bb64        0xc 00000000
 .text          0x000000000000bb70        0x4 C:/Users/jukken/rpi4_hyp_803/src/hardware/startup/boards/../../../../install/aarch64le/usr/lib\libstartup.a(cpuid_a76.o)
 .text          0x000000000000bb74        0x0 C:/Users/jukken/rpi4_hyp_803/src/hardware/startup/boards/../../../../install/aarch64le/usr/lib\libstartup.a(cpuid_a78ae.o)
 .text          0x000000000000bb74        0x0 C:/Users/jukken/rpi4_hyp_803/src/hardware/startup/boards/../../../../install/aarch64le/usr/lib\libstartup.a(cpuid_d15.o)
 *fill*         0x000000000000bb74        0xc 00000000
 .text          0x000000000000bb80       0x10 C:/Users/jukken/rpi4_hyp_803/src/hardware/startup/boards/../../../../install/aarch64le/usr/lib\libstartup.a(cpuid_d20.o)
 .text          0x000000000000bb90        0x0 C:/Users/jukken/rpi4_hyp_803/src/hardware/startup/boards/../../../../install/aarch64le/usr/lib\libstartup.a(cpuid_n1.o)
 .text          0x000000000000bb90        0x0 C:/Users/jukken/rpi4_hyp_803/src/hardware/startup/boards/../../../../install/aarch64le/usr/lib\libstartup.a(cpuid_neo_v1.o)
 .text          0x000000000000bb90        0x0 C:/Users/jukken/rpi4_hyp_803/src/hardware/startup/boards/../../../../install/aarch64le/usr/lib\libstartup.a(cpuid_neo_v2.o)
 .text          0x000000000000bb90        0x0 C:/Users/jukken/rpi4_hyp_803/src/hardware/startup/boards/../../../../install/aarch64le/usr/lib\libstartup.a(cpuid_v8_aem.o)
 .text          0x000000000000bb90        0x0 C:/Users/jukken/rpi4_hyp_803/src/hardware/startup/boards/../../../../install/aarch64le/usr/lib\libstartup.a(cpuid_v8_fm.o)
 .text          0x000000000000bb90        0x0 C:/Users/jukken/rpi4_hyp_803/src/hardware/startup/boards/../../../../install/aarch64le/usr/lib\libstartup.a(cpuid_x2.o)
 .text          0x000000000000bb90        0x0 C:/Users/jukken/rpi4_hyp_803/src/hardware/startup/boards/../../../../install/aarch64le/usr/lib\libstartup.a(cpuid_x4.o)
 .text          0x000000000000bb90        0x0 C:/Users/jukken/rpi4_hyp_803/src/hardware/startup/boards/../../../../install/aarch64le/usr/lib\libstartup.a(cpuid_x925.o)
 .text          0x000000000000bb90        0x8 C:/Users/jukken/rpi4_hyp_803/src/hardware/startup/boards/../../../../install/aarch64le/usr/lib\libstartup.a(crash_done.o)
                0x000000000000bb90                crash_done
 *fill*         0x000000000000bb98        0x8 00000000
 .text          0x000000000000bba0        0x4 C:/Users/jukken/rpi4_hyp_803/src/hardware/startup/boards/../../../../install/aarch64le/usr/lib\libstartup.a(dummy_print_char.o)
                0x000000000000bba0                dummy_print_char
 *fill*         0x000000000000bba4        0xc 00000000
 .text          0x000000000000bbb0      0x1d0 C:/Users/jukken/rpi4_hyp_803/src/hardware/startup/boards/../../../../install/aarch64le/usr/lib\libstartup.a(elf.o)
                0x000000000000bbb0                is_elf64
                0x000000000000bc60                is_elf32
                0x000000000000bd04                is_elf
                0x000000000000bd40                load_elf
 .text          0x000000000000bd80      0x36c C:/Users/jukken/rpi4_hyp_803/src/hardware/startup/boards/../../../../install/aarch64le/usr/lib\libstartup.a(elf32.o)
                0x000000000000bd80                load_elf32
 *fill*         0x000000000000c0ec        0x4 00000000
 .text          0x000000000000c0f0      0x358 C:/Users/jukken/rpi4_hyp_803/src/hardware/startup/boards/../../../../install/aarch64le/usr/lib\libstartup.a(elf64.o)
                0x000000000000c0f0                load_elf64
 *fill*         0x000000000000c448        0x8 00000000
 .text          0x000000000000c450       0x24 C:/Users/jukken/rpi4_hyp_803/src/hardware/startup/boards/../../../../install/aarch64le/usr/lib\libstartup.a(elf_map.o)
                0x000000000000c450                elf_map
 *fill*         0x000000000000c474        0xc 00000000
 .text          0x000000000000c480       0xec C:/Users/jukken/rpi4_hyp_803/src/hardware/startup/boards/../../../../install/aarch64le/usr/lib\libstartup.a(hwi_add_device.o)
                0x000000000000c480                hwi_add_device
 *fill*         0x000000000000c56c        0x4 00000000
 .text          0x000000000000c570       0x4c C:/Users/jukken/rpi4_hyp_803/src/hardware/startup/boards/../../../../install/aarch64le/usr/lib\libstartup.a(hwi_default.o)
                0x000000000000c570                hwi_default
 *fill*         0x000000000000c5bc        0x4 00000000
 .text          0x000000000000c5c0      0x1d0 C:/Users/jukken/rpi4_hyp_803/src/hardware/startup/boards/../../../../install/aarch64le/usr/lib\libstartup.a(hypervisor.o)
                0x000000000000c5c0                arch_hypervisor_validate_flags
                0x000000000000c650                arch_hypervisor_init
                0x000000000000c780                arch_hypervisor_syspage_init
 .text          0x000000000000c790       0x30 C:/Users/jukken/rpi4_hyp_803/src/hardware/startup/boards/../../../../install/aarch64le/usr/lib\libstartup.a(hypervisor_enable.o)
                0x000000000000c790                hyp_enable_el2_host
                0x000000000000c7ac                hyp_enable_el1_host
 .text          0x000000000000c7c0       0xa0 C:/Users/jukken/rpi4_hyp_803/src/hardware/startup/boards/../../../../install/aarch64le/usr/lib\libstartup.a(init_mitigation_mem.o)
                0x000000000000c7c0                init_mitigation_mem
 .text          0x000000000000c860        0x8 C:/Users/jukken/rpi4_hyp_803/src/hardware/startup/boards/../../../../install/aarch64le/usr/lib\libstartup.a(rtc_time.o)
                0x000000000000c860                rtc_time
 *fill*         0x000000000000c868        0x8 00000000
 .text          0x000000000000c870       0x40 C:/Users/jukken/rpi4_hyp_803/src/hardware/startup/boards/../../../../install/aarch64le/usr/lib\libstartup.a(startup_info.o)
                0x000000000000c870                find_startup_info
 .text          0x000000000000c8b0       0x5c C:/Users/jukken/rpi4_hyp_803/src/hardware/startup/boards/../../../../install/aarch64le/usr/lib\libstartup.a(vstart.o)
                0x000000000000c8b0                vstart
 *fill*         0x000000000000c90c        0x4 00000000
 .text          0x000000000000c910      0x798 C:/Users/jukken/qnx803/target/qnx/aarch64le/usr/lib\libucl.a(n2b_d.o)
                0x000000000000c910                ucl_nrv2b_decompress_8
                0x000000000000cb20                ucl_nrv2b_decompress_le16
                0x000000000000cd90                ucl_nrv2b_decompress_le32
 *fill*         0x000000000000d0a8        0x8 00000000
 .text          0x000000000000d0b0       0xf4 C:/Users/jukken/qnx803/target/qnx/aarch64le/usr/lib\libdrvr.a(hwi_find_unit.o)
                0x000000000000d0b0                hwi_find_unit
 *fill*         0x000000000000d1a4        0xc 00000000
 .text          0x000000000000d1b0       0xfc C:/Users/jukken/qnx803/target/qnx/aarch64le/usr/lib\libdrvr.a(hwi_tag_find.o)
                0x000000000000d1b0                hwi_tag_find
 *fill*         0x000000000000d2ac        0x4 00000000
 .text          0x000000000000d2b0       0x64 C:/Users/jukken/qnx803/target/qnx/aarch64le/usr/lib\libdrvr.a(hwi_find_bus.o)
                0x000000000000d2b0                hwi_find_bus
 *fill*         0x000000000000d314        0xc 00000000
 .text          0x000000000000d320       0x64 C:/Users/jukken/qnx803/target/qnx/aarch64le/usr/lib\libdrvr.a(hwi_find_device.o)
                0x000000000000d320                hwi_find_device
 *fill*         0x000000000000d384        0xc 00000000
 .text          0x000000000000d390       0xfc C:/Users/jukken/qnx803/target/qnx/aarch64le/usr/lib\libdrvr.a(hwi_find.o)
                0x000000000000d390                hwi_find
 *fill*         0x000000000000d48c        0x4 00000000
 .text          0x000000000000d490      0x78c C:/Users/jukken/qnx803/target/qnx/aarch64le/usr/lib\libfdt.a(fdt.o)
                0x000000000000d490                fdt_ro_probe_
                0x000000000000d520                fdt_header_size_
                0x000000000000d550                fdt_header_size
                0x000000000000d590                fdt_check_header
                0x000000000000d6c4                fdt_offset_ptr
                0x000000000000d740                fdt_next_tag
                0x000000000000d894                fdt_check_node_offset_
                0x000000000000d8d4                fdt_check_prop_offset_
                0x000000000000d914                fdt_next_node
                0x000000000000da40                fdt_first_subnode
                0x000000000000dab0                fdt_next_subnode
                0x000000000000db40                fdt_find_string_
                0x000000000000dbc4                fdt_move
 *fill*         0x000000000000dc1c        0x4 00000000
 .text          0x000000000000dc20     0x1a1c C:/Users/jukken/qnx803/target/qnx/aarch64le/usr/lib\libfdt.a(fdt_ro.o)
                0x000000000000dcc4                fdt_get_string
                0x000000000000dfb4                fdt_string
                0x000000000000dfc0                fdt_get_mem_rsv
                0x000000000000e030                fdt_num_mem_rsv
                0x000000000000e070                fdt_get_name
                0x000000000000e130                fdt_subnode_offset_namelen
                0x000000000000e280                fdt_subnode_offset
                0x000000000000e2c4                fdt_first_property_offset
                0x000000000000e380                fdt_next_property_offset
                0x000000000000e440                fdt_get_property_by_offset
                0x000000000000e470                fdt_get_property_namelen
                0x000000000000e4a0                fdt_get_property
                0x000000000000e520                fdt_getprop_namelen
                0x000000000000e5c0                fdt_path_offset_namelen
                0x000000000000e720                fdt_path_offset
                0x000000000000e754                fdt_getprop_by_offset
                0x000000000000e840                fdt_getprop
                0x000000000000e890                fdt_get_phandle
                0x000000000000e960                fdt_find_max_phandle
                0x000000000000e9e0                fdt_generate_phandle
                0x000000000000ea70                fdt_get_alias_namelen
                0x000000000000eae0                fdt_get_alias
                0x000000000000eb54                fdt_get_path
                0x000000000000ed10                fdt_supernode_atdepth_offset
                0x000000000000ee20                fdt_node_depth
                0x000000000000ee84                fdt_parent_offset
                0x000000000000ef34                fdt_node_offset_by_prop_value
                0x000000000000f040                fdt_node_offset_by_phandle
                0x000000000000f0d0                fdt_stringlist_contains
                0x000000000000f190                fdt_stringlist_count
                0x000000000000f270                fdt_stringlist_search
                0x000000000000f3a0                fdt_stringlist_get
                0x000000000000f4c0                fdt_node_check_compatible
                0x000000000000f544                fdt_node_offset_by_compatible
 *fill*         0x000000000000f63c        0x4 00000000
 .text          0x000000000000f640      0x1a8 C:/Users/jukken/qnx803/target/qnx/aarch64le/lib\libc.a(hwi_find_item.o)
                0x000000000000f640                hwi_find_item
 *fill*         0x000000000000f7e8        0x8 00000000
 .text          0x000000000000f7f0       0x80 C:/Users/jukken/qnx803/target/qnx/aarch64le/lib\libc.a(hwi_next_tag.o)
                0x000000000000f7f0                hwi_next_tag
 .text          0x000000000000f870       0x24 C:/Users/jukken/qnx803/target/qnx/aarch64le/lib\libc.a(hwi_off2tag.o)
                0x000000000000f870                hwi_off2tag
 *fill*         0x000000000000f894        0xc 00000000
 .text          0x000000000000f8a0       0x24 C:/Users/jukken/qnx803/target/qnx/aarch64le/lib\libc.a(hwi_tag2off.o)
                0x000000000000f8a0                hwi_tag2off
 *fill*         0x000000000000f8c4        0xc 00000000
 .text          0x000000000000f8d0       0x34 C:/Users/jukken/qnx803/target/qnx/aarch64le/lib\libc.a(memchr.o)
                0x000000000000f8d0                memchr
                0x000000000000f8d0                __memchr_isr
 *fill*         0x000000000000f904       0x3c 00000000
 .text          0x000000000000f940      0x180 C:/Users/jukken/qnx803/target/qnx/aarch64le/lib\libc.a(memcmp.o)
                0x000000000000f940                memcmp
                0x000000000000f940                __memcmp_isr
 .text          0x000000000000fac0       0xa0 C:/Users/jukken/qnx803/target/qnx/aarch64le/lib\libc.a(memset.o)
                0x000000000000fac0                memset
                0x000000000000fac0                __memset_isr
 .text          0x000000000000fb60       0x2c C:/Users/jukken/qnx803/target/qnx/aarch64le/lib\libc.a(strchr.o)
                0x000000000000fb60                strchr
                0x000000000000fb60                __strchr_isr
 *fill*         0x000000000000fb8c       0x34 00000000
 .text          0x000000000000fbc0       0xa4 C:/Users/jukken/qnx803/target/qnx/aarch64le/lib\libc.a(strcmp.o)
                0x000000000000fbc0                strcmp
                0x000000000000fbc0                __strcmp_isr
 *fill*         0x000000000000fc64        0xc 00000000
 .text          0x000000000000fc70       0x54 C:/Users/jukken/qnx803/target/qnx/aarch64le/lib\libc.a(strlcpy.o)
                0x000000000000fc70                strlcpy
 *fill*         0x000000000000fcc4       0x3c 00000000
 .text          0x000000000000fd00      0x1a0 C:/Users/jukken/qnx803/target/qnx/aarch64le/lib\libc.a(strlen.o)
                0x000000000000fd00                strlen
                0x000000000000fd00                __strlen_isr
 .text          0x000000000000fea0       0x30 C:/Users/jukken/qnx803/target/qnx/aarch64le/lib\libc.a(strnlen.o)
                0x000000000000fea0                strnlen
 .text          0x000000000000fed0       0x28 C:/Users/jukken/qnx803/target/qnx/aarch64le/lib\libc.a(strrchr.o)
                0x000000000000fed0                strrchr
 *fill*         0x000000000000fef8        0x8 00000000
 .text          0x000000000000ff00        0x8 C:/Users/jukken/qnx803/target/qnx/aarch64le/lib\libc.a(strtol.o)
                0x000000000000ff00                strtol
 *fill*         0x000000000000ff08        0x8 00000000
 .text          0x000000000000ff10       0x44 C:/Users/jukken/qnx803/target/qnx/aarch64le/lib\libc.a(__progname.o)
                0x000000000000ff10                getprogname
                0x000000000000ff20                setprogname
 *fill*         0x000000000000ff54        0xc 00000000
 .text          0x000000000000ff60       0xa4 C:/Users/jukken/qnx803/target/qnx/aarch64le/lib\libc.a(_ssp.o)
                0x000000000000ff60                __fortify_fail_extra_arg
                0x000000000000ff74                __fortify_fail_fmt_n
                0x000000000000ff90                __fortify_fail_missing_arg
                0x000000000000ffa4                __fortify_fail_overflow_dst
                0x000000000000ffc0                __chk_fail
                0x000000000000ffd4                __longjmp_chk_fail
                0x000000000000fff0                __stack_chk_fail
 .text          0x0000000000010004        0x0 C:/Users/jukken/qnx803/target/qnx/aarch64le/lib\libc.a(__stack_chk_guard.o)
 *fill*         0x0000000000010004        0xc 00000000
 .text          0x0000000000010010      0x104 C:/Users/jukken/qnx803/target/qnx/aarch64le/lib\libc.a(getsubopt.o)
                0x0000000000010010                getsubopt
 *fill*         0x0000000000010114        0xc 00000000
 .text          0x0000000000010120      0x360 C:/Users/jukken/qnx803/target/qnx/aarch64le/lib\libc.a(xstoint.o)
                0x0000000000010120                _Stoint
 .text          0x0000000000010480       0x40 C:/Users/jukken/qnx803/target/qnx/aarch64le/lib\libc.a(strncmp.o)
                0x0000000000010480                strncmp
 .text          0x00000000000104c0       0x34 C:/Users/jukken/qnx803/target/qnx/aarch64le/lib\libc.a(xctype.o)
                0x00000000000104c0                _Getpctype
 *(.gnu.warning)

.text.startup   0x0000000000000000      0x438
 .text.startup  0x0000000000000000      0x438 main.o
                0x0000000000000000                main

.text.unlikely  0x0000000000000000       0x10
 .text.unlikely
                0x0000000000000000       0x10 C:/Users/jukken/rpi4_hyp_803/src/hardware/startup/boards/../../../../install/aarch64le/usr/lib\libstartup.a(_main.o)
                0x0000000000000000                abort

.fini
 *(SORT_NONE(.fini))

.rodata         0x0000000000000000      0x490
 *(.rodata)
 .rodata        0x0000000000000000       0x48 init_hwinfo.o
 .rodata        0x0000000000000048        0x8 init_intrinfo.o
 .rodata        0x0000000000000050        0x5 C:/Users/jukken/rpi4_hyp_803/src/hardware/startup/boards/../../../../install/aarch64le/usr/lib\libstartup.a(add_interrupt.o)
 *fill*         0x0000000000000055        0x3 
 .rodata        0x0000000000000058       0x12 C:/Users/jukken/rpi4_hyp_803/src/hardware/startup/boards/../../../../install/aarch64le/usr/lib\libstartup.a(as_add_containing.o)
 *fill*         0x000000000000006a        0x2 
 .rodata        0x000000000000006c       0x6c C:/Users/jukken/rpi4_hyp_803/src/hardware/startup/boards/../../../../install/aarch64le/usr/lib\libstartup.a(common_options.o)
 .rodata        0x00000000000000d8       0x1a C:/Users/jukken/rpi4_hyp_803/src/hardware/startup/boards/../../../../install/aarch64le/usr/lib\libstartup.a(gic_v2.o)
 *fill*         0x00000000000000f2        0x6 
 .rodata        0x00000000000000f8       0x20 C:/Users/jukken/rpi4_hyp_803/src/hardware/startup/boards/../../../../install/aarch64le/usr/lib\libstartup.a(init_cpuinfo.o)
 .rodata        0x0000000000000118       0x1c C:/Users/jukken/rpi4_hyp_803/src/hardware/startup/boards/../../../../install/aarch64le/usr/lib\libstartup.a(init_mmu.o)
 *fill*         0x0000000000000134        0x4 
 .rodata        0x0000000000000138       0x11 C:/Users/jukken/rpi4_hyp_803/src/hardware/startup/boards/../../../../install/aarch64le/usr/lib\libstartup.a(kprintf.o)
 *fill*         0x0000000000000149        0x3 
 .rodata        0x000000000000014c        0xf C:/Users/jukken/rpi4_hyp_803/src/hardware/startup/boards/../../../../install/aarch64le/usr/lib\libstartup.a(memcpy.o)
 *fill*         0x000000000000015b        0x5 
 .rodata        0x0000000000000160       0x20 C:/Users/jukken/rpi4_hyp_803/src/hardware/startup/boards/../../../../install/aarch64le/usr/lib\libstartup.a(as_default.o)
 .rodata        0x0000000000000180        0x8 C:/Users/jukken/rpi4_hyp_803/src/hardware/startup/boards/../../../../install/aarch64le/usr/lib\libstartup.a(as_find.o)
 *fill*         0x0000000000000188        0x8 
 .rodata        0x0000000000000190      0x300 C:/Users/jukken/qnx803/target/qnx/aarch64le/lib\libc.a(xctype.o)

.rodata.str1.8  0x0000000000000000     0x2250
 .rodata.str1.8
                0x0000000000000000       0x82 bcm2711_init_raminfo.o
 *fill*         0x0000000000000082        0x6 
 .rodata.str1.8
                0x0000000000000088      0x187 init_board_type.o
 *fill*         0x000000000000020f        0x1 
 .rodata.str1.8
                0x0000000000000210      0x136 init_hwinfo.o
 *fill*         0x0000000000000346        0x2 
 .rodata.str1.8
                0x0000000000000348       0xee main.o
 *fill*         0x0000000000000436        0x2 
 .rodata.str1.8
                0x0000000000000438       0x26 C:/Users/jukken/rpi4_hyp_803/src/hardware/startup/boards/../../../../install/aarch64le/usr/lib\libstartup.a(_main.o)
 *fill*         0x000000000000045e        0x2 
 .rodata.str1.8
                0x0000000000000460       0x16 C:/Users/jukken/rpi4_hyp_803/src/hardware/startup/boards/../../../../install/aarch64le/usr/lib\libstartup.a(as_add_containing.o)
 *fill*         0x0000000000000476        0x2 
 .rodata.str1.8
                0x0000000000000478       0x2e C:/Users/jukken/rpi4_hyp_803/src/hardware/startup/boards/../../../../install/aarch64le/usr/lib\libstartup.a(callouts.o)
 *fill*         0x00000000000004a6        0x2 
 .rodata.str1.8
                0x00000000000004a8       0x29 C:/Users/jukken/rpi4_hyp_803/src/hardware/startup/boards/../../../../install/aarch64le/usr/lib\libstartup.a(common_options.o)
 *fill*         0x00000000000004d1        0x7 
 .rodata.str1.8
                0x00000000000004d8       0xce C:/Users/jukken/rpi4_hyp_803/src/hardware/startup/boards/../../../../install/aarch64le/usr/lib\libstartup.a(cpu_common_options.o)
 *fill*         0x00000000000005a6        0x2 
 .rodata.str1.8
                0x00000000000005a8        0x3 C:/Users/jukken/rpi4_hyp_803/src/hardware/startup/boards/../../../../install/aarch64le/usr/lib\libstartup.a(debug.o)
 *fill*         0x00000000000005ab        0x5 
 .rodata.str1.8
                0x00000000000005b0       0xe1 C:/Users/jukken/rpi4_hyp_803/src/hardware/startup/boards/../../../../install/aarch64le/usr/lib\libstartup.a(fdt_init_bootopt.o)
 *fill*         0x0000000000000691        0x7 
 .rodata.str1.8
                0x0000000000000698      0x121 C:/Users/jukken/rpi4_hyp_803/src/hardware/startup/boards/../../../../install/aarch64le/usr/lib\libstartup.a(gic_v2.o)
 *fill*         0x00000000000007b9        0x7 
 .rodata.str1.8
                0x00000000000007c0       0x31 C:/Users/jukken/rpi4_hyp_803/src/hardware/startup/boards/../../../../install/aarch64le/usr/lib\libstartup.a(hwi_add_nanospin.o)
 *fill*         0x00000000000007f1        0x7 
 .rodata.str1.8
                0x00000000000007f8        0x4 C:/Users/jukken/rpi4_hyp_803/src/hardware/startup/boards/../../../../install/aarch64le/usr/lib\libstartup.a(hwi_alloc.o)
 *fill*         0x00000000000007fc        0x4 
 .rodata.str1.8
                0x0000000000000800        0xb C:/Users/jukken/rpi4_hyp_803/src/hardware/startup/boards/../../../../install/aarch64le/usr/lib\libstartup.a(hwi_find_as.o)
 *fill*         0x000000000000080b        0x5 
 .rodata.str1.8
                0x0000000000000810       0x17 C:/Users/jukken/rpi4_hyp_803/src/hardware/startup/boards/../../../../install/aarch64le/usr/lib\libstartup.a(hwidev_add.o)
 *fill*         0x0000000000000827        0x1 
 .rodata.str1.8
                0x0000000000000828       0x24 C:/Users/jukken/rpi4_hyp_803/src/hardware/startup/boards/../../../../install/aarch64le/usr/lib\libstartup.a(hwitag_add_common.o)
 *fill*         0x000000000000084c        0x4 
 .rodata.str1.8
                0x0000000000000850        0x9 C:/Users/jukken/rpi4_hyp_803/src/hardware/startup/boards/../../../../install/aarch64le/usr/lib\libstartup.a(hwitag_add_inputclk.o)
 *fill*         0x0000000000000859        0x7 
 .rodata.str1.8
                0x0000000000000860        0x4 C:/Users/jukken/rpi4_hyp_803/src/hardware/startup/boards/../../../../install/aarch64le/usr/lib\libstartup.a(hwitag_add_irq.o)
 *fill*         0x0000000000000864        0x4 
 .rodata.str1.8
                0x0000000000000868        0x9 C:/Users/jukken/rpi4_hyp_803/src/hardware/startup/boards/../../../../install/aarch64le/usr/lib\libstartup.a(hwitag_add_location.o)
 *fill*         0x0000000000000871        0x7 
 .rodata.str1.8
                0x0000000000000878        0x8 C:/Users/jukken/rpi4_hyp_803/src/hardware/startup/boards/../../../../install/aarch64le/usr/lib\libstartup.a(hwitag_add_nicaddr.o)
 .rodata.str1.8
                0x0000000000000880        0xb C:/Users/jukken/rpi4_hyp_803/src/hardware/startup/boards/../../../../install/aarch64le/usr/lib\libstartup.a(hwitag_add_nicphyaddr.o)
 *fill*         0x000000000000088b        0x5 
 .rodata.str1.8
                0x0000000000000890        0x8 C:/Users/jukken/rpi4_hyp_803/src/hardware/startup/boards/../../../../install/aarch64le/usr/lib\libstartup.a(hwitag_add_regname.o)
 .rodata.str1.8
                0x0000000000000898        0x9 C:/Users/jukken/rpi4_hyp_803/src/hardware/startup/boards/../../../../install/aarch64le/usr/lib\libstartup.a(hwitag_set_inputclk.o)
 *fill*         0x00000000000008a1        0x7 
 .rodata.str1.8
                0x00000000000008a8       0x21 C:/Users/jukken/rpi4_hyp_803/src/hardware/startup/boards/../../../../install/aarch64le/usr/lib\libstartup.a(hwitag_set_ivec.o)
 *fill*         0x00000000000008c9        0x7 
 .rodata.str1.8
                0x00000000000008d0       0x3a C:/Users/jukken/rpi4_hyp_803/src/hardware/startup/boards/../../../../install/aarch64le/usr/lib\libstartup.a(hypervisor_setup.o)
 *fill*         0x000000000000090a        0x6 
 .rodata.str1.8
                0x0000000000000910      0x1c5 C:/Users/jukken/rpi4_hyp_803/src/hardware/startup/boards/../../../../install/aarch64le/usr/lib\libstartup.a(init_cpuinfo.o)
 *fill*         0x0000000000000ad5        0x3 
 .rodata.str1.8
                0x0000000000000ad8       0x27 C:/Users/jukken/rpi4_hyp_803/src/hardware/startup/boards/../../../../install/aarch64le/usr/lib\libstartup.a(init_mmu.o)
 *fill*         0x0000000000000aff        0x1 
 .rodata.str1.8
                0x0000000000000b00      0x146 C:/Users/jukken/rpi4_hyp_803/src/hardware/startup/boards/../../../../install/aarch64le/usr/lib\libstartup.a(init_system_private.o)
 *fill*         0x0000000000000c46        0x2 
 .rodata.str1.8
                0x0000000000000c48       0x19 C:/Users/jukken/rpi4_hyp_803/src/hardware/startup/boards/../../../../install/aarch64le/usr/lib\libstartup.a(invert_timer_freq.o)
 *fill*         0x0000000000000c61        0x7 
 .rodata.str1.8
                0x0000000000000c68       0xde C:/Users/jukken/rpi4_hyp_803/src/hardware/startup/boards/../../../../install/aarch64le/usr/lib\libstartup.a(load_ifs.o)
 *fill*         0x0000000000000d46        0x2 
 .rodata.str1.8
                0x0000000000000d48      0x7e3 C:/Users/jukken/rpi4_hyp_803/src/hardware/startup/boards/../../../../install/aarch64le/usr/lib\libstartup.a(print_sysp.o)
 *fill*         0x000000000000152b        0x5 
 .rodata.str1.8
                0x0000000000001530      0x111 C:/Users/jukken/rpi4_hyp_803/src/hardware/startup/boards/../../../../install/aarch64le/usr/lib\libstartup.a(ram.o)
 *fill*         0x0000000000001641        0x7 
 .rodata.str1.8
                0x0000000000001648      0x4e9 C:/Users/jukken/rpi4_hyp_803/src/hardware/startup/boards/../../../../install/aarch64le/usr/lib\libstartup.a(restore_ifs.o)
 *fill*         0x0000000000001b31        0x7 
 .rodata.str1.8
                0x0000000000001b38       0x1c C:/Users/jukken/rpi4_hyp_803/src/hardware/startup/boards/../../../../install/aarch64le/usr/lib\libstartup.a(ssp.o)
 *fill*         0x0000000000001b54        0x4 
 .rodata.str1.8
                0x0000000000001b58       0x6a C:/Users/jukken/rpi4_hyp_803/src/hardware/startup/boards/../../../../install/aarch64le/usr/lib\libstartup.a(startnext.o)
 *fill*         0x0000000000001bc2        0x6 
 .rodata.str1.8
                0x0000000000001bc8       0x3b C:/Users/jukken/rpi4_hyp_803/src/hardware/startup/boards/../../../../install/aarch64le/usr/lib\libstartup.a(syspage_memory.o)
 *fill*         0x0000000000001c03        0x5 
 .rodata.str1.8
                0x0000000000001c08       0x35 C:/Users/jukken/rpi4_hyp_803/src/hardware/startup/boards/../../../../install/aarch64le/usr/lib\libstartup.a(uncompress.o)
 *fill*         0x0000000000001c3d        0x3 
 .rodata.str1.8
                0x0000000000001c40        0x5 C:/Users/jukken/rpi4_hyp_803/src/hardware/startup/boards/../../../../install/aarch64le/usr/lib\libstartup.a(uncompress_ucl.o)
 *fill*         0x0000000000001c45        0x3 
 .rodata.str1.8
                0x0000000000001c48       0xcc C:/Users/jukken/rpi4_hyp_803/src/hardware/startup/boards/../../../../install/aarch64le/usr/lib\libstartup.a(aarch64_map.o)
 *fill*         0x0000000000001d14        0x4 
 .rodata.str1.8
                0x0000000000001d18       0x16 C:/Users/jukken/rpi4_hyp_803/src/hardware/startup/boards/../../../../install/aarch64le/usr/lib\libstartup.a(ap_fail.o)
 *fill*         0x0000000000001d2e        0x2 
 .rodata.str1.8
                0x0000000000001d30        0x3 C:/Users/jukken/rpi4_hyp_803/src/hardware/startup/boards/../../../../install/aarch64le/usr/lib\libstartup.a(as_add64.o)
 *fill*         0x0000000000001d33        0x5 
 .rodata.str1.8
                0x0000000000001d38        0x7 C:/Users/jukken/rpi4_hyp_803/src/hardware/startup/boards/../../../../install/aarch64le/usr/lib\libstartup.a(as_default.o)
 *fill*         0x0000000000001d3f        0x1 
 .rodata.str1.8
                0x0000000000001d40       0x30 C:/Users/jukken/rpi4_hyp_803/src/hardware/startup/boards/../../../../install/aarch64le/usr/lib\libstartup.a(as_find.o)
 .rodata.str1.8
                0x0000000000001d70       0x33 C:/Users/jukken/rpi4_hyp_803/src/hardware/startup/boards/../../../../install/aarch64le/usr/lib\libstartup.a(cpu_syspage_memory.o)
 *fill*         0x0000000000001da3        0x5 
 .rodata.str1.8
                0x0000000000001da8        0xb C:/Users/jukken/rpi4_hyp_803/src/hardware/startup/boards/../../../../install/aarch64le/usr/lib\libstartup.a(cpuid_a35.o)
 *fill*         0x0000000000001db3        0x5 
 .rodata.str1.8
                0x0000000000001db8        0xb C:/Users/jukken/rpi4_hyp_803/src/hardware/startup/boards/../../../../install/aarch64le/usr/lib\libstartup.a(cpuid_a53.o)
 *fill*         0x0000000000001dc3        0x5 
 .rodata.str1.8
                0x0000000000001dc8        0xb C:/Users/jukken/rpi4_hyp_803/src/hardware/startup/boards/../../../../install/aarch64le/usr/lib\libstartup.a(cpuid_a55.o)
 *fill*         0x0000000000001dd3        0x5 
 .rodata.str1.8
                0x0000000000001dd8        0xb C:/Users/jukken/rpi4_hyp_803/src/hardware/startup/boards/../../../../install/aarch64le/usr/lib\libstartup.a(cpuid_a57.o)
 *fill*         0x0000000000001de3        0x5 
 .rodata.str1.8
                0x0000000000001de8        0xb C:/Users/jukken/rpi4_hyp_803/src/hardware/startup/boards/../../../../install/aarch64le/usr/lib\libstartup.a(cpuid_a72.o)
 *fill*         0x0000000000001df3        0x5 
 .rodata.str1.8
                0x0000000000001df8        0xc C:/Users/jukken/rpi4_hyp_803/src/hardware/startup/boards/../../../../install/aarch64le/usr/lib\libstartup.a(cpuid_a720.o)
 *fill*         0x0000000000001e04        0x4 
 .rodata.str1.8
                0x0000000000001e08        0xb C:/Users/jukken/rpi4_hyp_803/src/hardware/startup/boards/../../../../install/aarch64le/usr/lib\libstartup.a(cpuid_a75.o)
 *fill*         0x0000000000001e13        0x5 
 .rodata.str1.8
                0x0000000000001e18        0xb C:/Users/jukken/rpi4_hyp_803/src/hardware/startup/boards/../../../../install/aarch64le/usr/lib\libstartup.a(cpuid_a76.o)
 *fill*         0x0000000000001e23        0x5 
 .rodata.str1.8
                0x0000000000001e28        0xd C:/Users/jukken/rpi4_hyp_803/src/hardware/startup/boards/../../../../install/aarch64le/usr/lib\libstartup.a(cpuid_a78ae.o)
 *fill*         0x0000000000001e35        0x3 
 .rodata.str1.8
                0x0000000000001e38        0xb C:/Users/jukken/rpi4_hyp_803/src/hardware/startup/boards/../../../../install/aarch64le/usr/lib\libstartup.a(cpuid_d15.o)
 *fill*         0x0000000000001e43        0x5 
 .rodata.str1.8
                0x0000000000001e48        0xb C:/Users/jukken/rpi4_hyp_803/src/hardware/startup/boards/../../../../install/aarch64le/usr/lib\libstartup.a(cpuid_d20.o)
 *fill*         0x0000000000001e53        0x5 
 .rodata.str1.8
                0x0000000000001e58        0x9 C:/Users/jukken/rpi4_hyp_803/src/hardware/startup/boards/../../../../install/aarch64le/usr/lib\libstartup.a(cpuid_n1.o)
 *fill*         0x0000000000001e61        0x7 
 .rodata.str1.8
                0x0000000000001e68        0xa C:/Users/jukken/rpi4_hyp_803/src/hardware/startup/boards/../../../../install/aarch64le/usr/lib\libstartup.a(cpuid_neo_v1.o)
 *fill*         0x0000000000001e72        0x6 
 .rodata.str1.8
                0x0000000000001e78        0x8 C:/Users/jukken/rpi4_hyp_803/src/hardware/startup/boards/../../../../install/aarch64le/usr/lib\libstartup.a(cpuid_neo_v2.o)
 .rodata.str1.8
                0x0000000000001e80        0xa C:/Users/jukken/rpi4_hyp_803/src/hardware/startup/boards/../../../../install/aarch64le/usr/lib\libstartup.a(cpuid_v8_aem.o)
 *fill*         0x0000000000001e8a        0x6 
 .rodata.str1.8
                0x0000000000001e90        0x9 C:/Users/jukken/rpi4_hyp_803/src/hardware/startup/boards/../../../../install/aarch64le/usr/lib\libstartup.a(cpuid_v8_fm.o)
 *fill*         0x0000000000001e99        0x7 
 .rodata.str1.8
                0x0000000000001ea0        0x9 C:/Users/jukken/rpi4_hyp_803/src/hardware/startup/boards/../../../../install/aarch64le/usr/lib\libstartup.a(cpuid_x2.o)
 *fill*         0x0000000000001ea9        0x7 
 .rodata.str1.8
                0x0000000000001eb0        0xa C:/Users/jukken/rpi4_hyp_803/src/hardware/startup/boards/../../../../install/aarch64le/usr/lib\libstartup.a(cpuid_x4.o)
 *fill*         0x0000000000001eba        0x6 
 .rodata.str1.8
                0x0000000000001ec0        0xc C:/Users/jukken/rpi4_hyp_803/src/hardware/startup/boards/../../../../install/aarch64le/usr/lib\libstartup.a(cpuid_x925.o)
 *fill*         0x0000000000001ecc        0x4 
 .rodata.str1.8
                0x0000000000001ed0       0x1f C:/Users/jukken/rpi4_hyp_803/src/hardware/startup/boards/../../../../install/aarch64le/usr/lib\libstartup.a(hwi_add_device.o)
 *fill*         0x0000000000001eef        0x1 
 .rodata.str1.8
                0x0000000000001ef0       0x1c C:/Users/jukken/rpi4_hyp_803/src/hardware/startup/boards/../../../../install/aarch64le/usr/lib\libstartup.a(hwi_default.o)
 *fill*         0x0000000000001f0c        0x4 
 .rodata.str1.8
                0x0000000000001f10      0x18a C:/Users/jukken/rpi4_hyp_803/src/hardware/startup/boards/../../../../install/aarch64le/usr/lib\libstartup.a(hypervisor.o)
 *fill*         0x000000000000209a        0x6 
 .rodata.str1.8
                0x00000000000020a0       0x57 C:/Users/jukken/rpi4_hyp_803/src/hardware/startup/boards/../../../../install/aarch64le/usr/lib\libstartup.a(init_mitigation_mem.o)
 *fill*         0x00000000000020f7        0x1 
 .rodata.str1.8
                0x00000000000020f8        0xf C:/Users/jukken/qnx803/target/qnx/aarch64le/usr/lib\libdrvr.a(hwi_find_unit.o)
 *fill*         0x0000000000002107        0x1 
 .rodata.str1.8
                0x0000000000002108        0x4 C:/Users/jukken/qnx803/target/qnx/aarch64le/usr/lib\libdrvr.a(hwi_find_bus.o)
 *fill*         0x000000000000210c        0x4 
 .rodata.str1.8
                0x0000000000002110        0x7 C:/Users/jukken/qnx803/target/qnx/aarch64le/usr/lib\libdrvr.a(hwi_find_device.o)
 *fill*         0x0000000000002117        0x1 
 .rodata.str1.8
                0x0000000000002118        0x8 C:/Users/jukken/qnx803/target/qnx/aarch64le/usr/lib\libdrvr.a(hwi_find.o)
 .rodata.str1.8
                0x0000000000002120       0x33 C:/Users/jukken/qnx803/target/qnx/aarch64le/usr/lib\libfdt.a(fdt_ro.o)
 *fill*         0x0000000000002153        0x5 
 .rodata.str1.8
                0x0000000000002158       0xf8 C:/Users/jukken/qnx803/target/qnx/aarch64le/lib\libc.a(_ssp.o)

.rodata1
 *(.rodata1)

.eh_frame_hdr
 *(.eh_frame_hdr)

.eh_frame       0x0000000000000000     0x3cb4
 *(.eh_frame)
 .eh_frame      0x0000000000000000       0x38 bcm2711_init_board.o
 .eh_frame      0x0000000000000038       0x50 bcm2711_init_raminfo.o
 .eh_frame      0x0000000000000088       0x68 board_smp.o
 .eh_frame      0x00000000000000f0       0x98 hw_ser_miniuart.o
 .eh_frame      0x0000000000000188       0x28 init_asinfo.o
 .eh_frame      0x00000000000001b0       0xb8 init_board_type.o
 .eh_frame      0x0000000000000268       0x48 init_hwinfo.o
 .eh_frame      0x00000000000002b0       0x38 init_intrinfo.o
 .eh_frame      0x00000000000002e8       0x28 init_wdt.o
 .eh_frame      0x0000000000000310       0x98 main.o
 .eh_frame      0x00000000000003a8      0x1c0 mbox.o
 .eh_frame      0x0000000000000568       0x28 rpi4_board_config.o
 .eh_frame      0x0000000000000590       0x98 C:/Users/jukken/rpi4_hyp_803/src/hardware/startup/boards/../../../../install/aarch64le/usr/lib\libstartup.a(_main.o)
 .eh_frame      0x0000000000000628       0xa8 C:/Users/jukken/rpi4_hyp_803/src/hardware/startup/boards/../../../../install/aarch64le/usr/lib\libstartup.a(add_interrupt.o)
 .eh_frame      0x00000000000006d0       0x60 C:/Users/jukken/rpi4_hyp_803/src/hardware/startup/boards/../../../../install/aarch64le/usr/lib\libstartup.a(as_add_containing.o)
 .eh_frame      0x0000000000000730       0x70 C:/Users/jukken/rpi4_hyp_803/src/hardware/startup/boards/../../../../install/aarch64le/usr/lib\libstartup.a(as_find_containing.o)
 .eh_frame      0x00000000000007a0       0x28 C:/Users/jukken/rpi4_hyp_803/src/hardware/startup/boards/../../../../install/aarch64le/usr/lib\libstartup.a(as_off2info.o)
 .eh_frame      0x00000000000007c8       0x28 C:/Users/jukken/rpi4_hyp_803/src/hardware/startup/boards/../../../../install/aarch64le/usr/lib\libstartup.a(board_init.o)
 .eh_frame      0x00000000000007f0       0xa8 C:/Users/jukken/rpi4_hyp_803/src/hardware/startup/boards/../../../../install/aarch64le/usr/lib\libstartup.a(bootstrap_cmdline.o)
 .eh_frame      0x0000000000000898      0x190 C:/Users/jukken/rpi4_hyp_803/src/hardware/startup/boards/../../../../install/aarch64le/usr/lib\libstartup.a(callouts.o)
 .eh_frame      0x0000000000000a28      0x120 C:/Users/jukken/rpi4_hyp_803/src/hardware/startup/boards/../../../../install/aarch64le/usr/lib\libstartup.a(common_options.o)
 .eh_frame      0x0000000000000b48       0x48 C:/Users/jukken/rpi4_hyp_803/src/hardware/startup/boards/../../../../install/aarch64le/usr/lib\libstartup.a(cpu_cluster_add.o)
 .eh_frame      0x0000000000000b90       0x38 C:/Users/jukken/rpi4_hyp_803/src/hardware/startup/boards/../../../../install/aarch64le/usr/lib\libstartup.a(cpu_common_options.o)
 .eh_frame      0x0000000000000bc8       0x40 C:/Users/jukken/rpi4_hyp_803/src/hardware/startup/boards/../../../../install/aarch64le/usr/lib\libstartup.a(cpu_startup.o)
 .eh_frame      0x0000000000000c08       0x48 C:/Users/jukken/rpi4_hyp_803/src/hardware/startup/boards/../../../../install/aarch64le/usr/lib\libstartup.a(debug.o)
 .eh_frame      0x0000000000000c50       0x70 C:/Users/jukken/rpi4_hyp_803/src/hardware/startup/boards/../../../../install/aarch64le/usr/lib\libstartup.a(fdt_init_bootopt.o)
 .eh_frame      0x0000000000000cc0       0x28 C:/Users/jukken/rpi4_hyp_803/src/hardware/startup/boards/../../../../install/aarch64le/usr/lib\libstartup.a(getopt.o)
 .eh_frame      0x0000000000000ce8       0x38 C:/Users/jukken/rpi4_hyp_803/src/hardware/startup/boards/../../../../install/aarch64le/usr/lib\libstartup.a(getsize.o)
 .eh_frame      0x0000000000000d20       0xb8 C:/Users/jukken/rpi4_hyp_803/src/hardware/startup/boards/../../../../install/aarch64le/usr/lib\libstartup.a(gic_v2.o)
 .eh_frame      0x0000000000000dd8       0x90 C:/Users/jukken/rpi4_hyp_803/src/hardware/startup/boards/../../../../install/aarch64le/usr/lib\libstartup.a(hw_serpl011.o)
 .eh_frame      0x0000000000000e68       0x38 C:/Users/jukken/rpi4_hyp_803/src/hardware/startup/boards/../../../../install/aarch64le/usr/lib\libstartup.a(hwi_add_nanospin.o)
 .eh_frame      0x0000000000000ea0       0xc0 C:/Users/jukken/rpi4_hyp_803/src/hardware/startup/boards/../../../../install/aarch64le/usr/lib\libstartup.a(hwi_alloc.o)
 .eh_frame      0x0000000000000f60       0x28 C:/Users/jukken/rpi4_hyp_803/src/hardware/startup/boards/../../../../install/aarch64le/usr/lib\libstartup.a(hwi_find_as.o)
 .eh_frame      0x0000000000000f88       0x48 C:/Users/jukken/rpi4_hyp_803/src/hardware/startup/boards/../../../../install/aarch64le/usr/lib\libstartup.a(hwidev_add.o)
 .eh_frame      0x0000000000000fd0       0x40 C:/Users/jukken/rpi4_hyp_803/src/hardware/startup/boards/../../../../install/aarch64le/usr/lib\libstartup.a(hwidev_add_dma.o)
 .eh_frame      0x0000000000001010       0x40 C:/Users/jukken/rpi4_hyp_803/src/hardware/startup/boards/../../../../install/aarch64le/usr/lib\libstartup.a(hwidev_add_enet.o)
 .eh_frame      0x0000000000001050       0x48 C:/Users/jukken/rpi4_hyp_803/src/hardware/startup/boards/../../../../install/aarch64le/usr/lib\libstartup.a(hwidev_add_timer.o)
 .eh_frame      0x0000000000001098       0x58 C:/Users/jukken/rpi4_hyp_803/src/hardware/startup/boards/../../../../install/aarch64le/usr/lib\libstartup.a(hwitag_add_common.o)
 .eh_frame      0x00000000000010f0       0x38 C:/Users/jukken/rpi4_hyp_803/src/hardware/startup/boards/../../../../install/aarch64le/usr/lib\libstartup.a(hwitag_add_inputclk.o)
 .eh_frame      0x0000000000001128       0x38 C:/Users/jukken/rpi4_hyp_803/src/hardware/startup/boards/../../../../install/aarch64le/usr/lib\libstartup.a(hwitag_add_irq.o)
 .eh_frame      0x0000000000001160       0x40 C:/Users/jukken/rpi4_hyp_803/src/hardware/startup/boards/../../../../install/aarch64le/usr/lib\libstartup.a(hwitag_add_location.o)
 .eh_frame      0x00000000000011a0       0x38 C:/Users/jukken/rpi4_hyp_803/src/hardware/startup/boards/../../../../install/aarch64le/usr/lib\libstartup.a(hwitag_add_nicaddr.o)
 .eh_frame      0x00000000000011d8       0x38 C:/Users/jukken/rpi4_hyp_803/src/hardware/startup/boards/../../../../install/aarch64le/usr/lib\libstartup.a(hwitag_add_nicphyaddr.o)
 .eh_frame      0x0000000000001210       0x38 C:/Users/jukken/rpi4_hyp_803/src/hardware/startup/boards/../../../../install/aarch64le/usr/lib\libstartup.a(hwitag_add_regname.o)
 .eh_frame      0x0000000000001248       0x38 C:/Users/jukken/rpi4_hyp_803/src/hardware/startup/boards/../../../../install/aarch64le/usr/lib\libstartup.a(hwitag_set_inputclk.o)
 .eh_frame      0x0000000000001280       0x48 C:/Users/jukken/rpi4_hyp_803/src/hardware/startup/boards/../../../../install/aarch64le/usr/lib\libstartup.a(hwitag_set_ivec.o)
 .eh_frame      0x00000000000012c8       0x80 C:/Users/jukken/rpi4_hyp_803/src/hardware/startup/boards/../../../../install/aarch64le/usr/lib\libstartup.a(hypervisor_setup.o)
 .eh_frame      0x0000000000001348       0x28 C:/Users/jukken/rpi4_hyp_803/src/hardware/startup/boards/../../../../install/aarch64le/usr/lib\libstartup.a(init_cacheattr.o)
 .eh_frame      0x0000000000001370       0x78 C:/Users/jukken/rpi4_hyp_803/src/hardware/startup/boards/../../../../install/aarch64le/usr/lib\libstartup.a(init_cpuinfo.o)
 .eh_frame      0x00000000000013e8       0x38 C:/Users/jukken/rpi4_hyp_803/src/hardware/startup/boards/../../../../install/aarch64le/usr/lib\libstartup.a(init_mmu.o)
 .eh_frame      0x0000000000001420       0x28 C:/Users/jukken/rpi4_hyp_803/src/hardware/startup/boards/../../../../install/aarch64le/usr/lib\libstartup.a(init_qtime.o)
 .eh_frame      0x0000000000001448       0x68 C:/Users/jukken/rpi4_hyp_803/src/hardware/startup/boards/../../../../install/aarch64le/usr/lib\libstartup.a(init_qtime_v8gt.o)
 .eh_frame      0x00000000000014b0       0xa8 C:/Users/jukken/rpi4_hyp_803/src/hardware/startup/boards/../../../../install/aarch64le/usr/lib\libstartup.a(init_smp.o)
 .eh_frame      0x0000000000001558       0x58 C:/Users/jukken/rpi4_hyp_803/src/hardware/startup/boards/../../../../install/aarch64le/usr/lib\libstartup.a(init_system_private.o)
 .eh_frame      0x00000000000015b0       0x30 C:/Users/jukken/rpi4_hyp_803/src/hardware/startup/boards/../../../../install/aarch64le/usr/lib\libstartup.a(invert_timer_freq.o)
 .eh_frame      0x00000000000015e0       0x68 C:/Users/jukken/rpi4_hyp_803/src/hardware/startup/boards/../../../../install/aarch64le/usr/lib\libstartup.a(jtag.o)
 .eh_frame      0x0000000000001648      0x160 C:/Users/jukken/rpi4_hyp_803/src/hardware/startup/boards/../../../../install/aarch64le/usr/lib\libstartup.a(kprintf.o)
 .eh_frame      0x00000000000017a8       0x78 C:/Users/jukken/rpi4_hyp_803/src/hardware/startup/boards/../../../../install/aarch64le/usr/lib\libstartup.a(load_ifs.o)
 .eh_frame      0x0000000000001820       0x28 C:/Users/jukken/rpi4_hyp_803/src/hardware/startup/boards/../../../../install/aarch64le/usr/lib\libstartup.a(map_callout_io.o)
 .eh_frame      0x0000000000001848       0x40 C:/Users/jukken/rpi4_hyp_803/src/hardware/startup/boards/../../../../install/aarch64le/usr/lib\libstartup.a(map_startup_mem.o)
 .eh_frame      0x0000000000001888       0x28 C:/Users/jukken/rpi4_hyp_803/src/hardware/startup/boards/../../../../install/aarch64le/usr/lib\libstartup.a(memcpy.o)
 .eh_frame      0x00000000000018b0       0x50 C:/Users/jukken/rpi4_hyp_803/src/hardware/startup/boards/../../../../install/aarch64le/usr/lib\libstartup.a(memfuncs.o)
 .eh_frame      0x0000000000001900       0x30 C:/Users/jukken/rpi4_hyp_803/src/hardware/startup/boards/../../../../install/aarch64le/usr/lib\libstartup.a(memmove.o)
 .eh_frame      0x0000000000001930      0x348 C:/Users/jukken/rpi4_hyp_803/src/hardware/startup/boards/../../../../install/aarch64le/usr/lib\libstartup.a(print_sysp.o)
 .eh_frame      0x0000000000001c78      0x280 C:/Users/jukken/rpi4_hyp_803/src/hardware/startup/boards/../../../../install/aarch64le/usr/lib\libstartup.a(ram.o)
 .eh_frame      0x0000000000001ef8      0x1c8 C:/Users/jukken/rpi4_hyp_803/src/hardware/startup/boards/../../../../install/aarch64le/usr/lib\libstartup.a(restore_ifs.o)
 .eh_frame      0x00000000000020c0       0x30 C:/Users/jukken/rpi4_hyp_803/src/hardware/startup/boards/../../../../install/aarch64le/usr/lib\libstartup.a(ssp.o)
 .eh_frame      0x00000000000020f0       0x38 C:/Users/jukken/rpi4_hyp_803/src/hardware/startup/boards/../../../../install/aarch64le/usr/lib\libstartup.a(startnext.o)
 .eh_frame      0x0000000000002128      0x110 C:/Users/jukken/rpi4_hyp_803/src/hardware/startup/boards/../../../../install/aarch64le/usr/lib\libstartup.a(strings.o)
 .eh_frame      0x0000000000002238       0x40 C:/Users/jukken/rpi4_hyp_803/src/hardware/startup/boards/../../../../install/aarch64le/usr/lib\libstartup.a(strtoul.o)
 .eh_frame      0x0000000000002278      0x118 C:/Users/jukken/rpi4_hyp_803/src/hardware/startup/boards/../../../../install/aarch64le/usr/lib\libstartup.a(syspage_memory.o)
 .eh_frame      0x0000000000002390       0x28 C:/Users/jukken/rpi4_hyp_803/src/hardware/startup/boards/../../../../install/aarch64le/usr/lib\libstartup.a(tweak_cmdline.o)
 .eh_frame      0x00000000000023b8       0x40 C:/Users/jukken/rpi4_hyp_803/src/hardware/startup/boards/../../../../install/aarch64le/usr/lib\libstartup.a(uncompress.o)
 .eh_frame      0x00000000000023f8       0x40 C:/Users/jukken/rpi4_hyp_803/src/hardware/startup/boards/../../../../install/aarch64le/usr/lib\libstartup.a(uncompress_ucl.o)
 .eh_frame      0x0000000000002438       0x28 C:/Users/jukken/rpi4_hyp_803/src/hardware/startup/boards/../../../../install/aarch64le/usr/lib\libstartup.a(aarch64_cpuspeed.o)
 .eh_frame      0x0000000000002460      0x118 C:/Users/jukken/rpi4_hyp_803/src/hardware/startup/boards/../../../../install/aarch64le/usr/lib\libstartup.a(aarch64_map.o)
 .eh_frame      0x0000000000002578       0x88 C:/Users/jukken/rpi4_hyp_803/src/hardware/startup/boards/../../../../install/aarch64le/usr/lib\libstartup.a(add_cache.o)
 .eh_frame      0x0000000000002600       0x40 C:/Users/jukken/rpi4_hyp_803/src/hardware/startup/boards/../../../../install/aarch64le/usr/lib\libstartup.a(alloc_qtime.o)
 .eh_frame      0x0000000000002640       0x30 C:/Users/jukken/rpi4_hyp_803/src/hardware/startup/boards/../../../../install/aarch64le/usr/lib\libstartup.a(ap_fail.o)
 .eh_frame      0x0000000000002670       0x28 C:/Users/jukken/rpi4_hyp_803/src/hardware/startup/boards/../../../../install/aarch64le/usr/lib\libstartup.a(as_add.o)
 .eh_frame      0x0000000000002698       0x50 C:/Users/jukken/rpi4_hyp_803/src/hardware/startup/boards/../../../../install/aarch64le/usr/lib\libstartup.a(as_add64.o)
 .eh_frame      0x00000000000026e8       0x28 C:/Users/jukken/rpi4_hyp_803/src/hardware/startup/boards/../../../../install/aarch64le/usr/lib\libstartup.a(as_default.o)
 .eh_frame      0x0000000000002710       0x58 C:/Users/jukken/rpi4_hyp_803/src/hardware/startup/boards/../../../../install/aarch64le/usr/lib\libstartup.a(as_find.o)
 .eh_frame      0x0000000000002768       0xe0 C:/Users/jukken/rpi4_hyp_803/src/hardware/startup/boards/../../../../install/aarch64le/usr/lib\libstartup.a(board_sysctl.o)
 .eh_frame      0x0000000000002848       0x48 C:/Users/jukken/rpi4_hyp_803/src/hardware/startup/boards/../../../../install/aarch64le/usr/lib\libstartup.a(cpu_startnext.o)
 .eh_frame      0x0000000000002890       0x90 C:/Users/jukken/rpi4_hyp_803/src/hardware/startup/boards/../../../../install/aarch64le/usr/lib\libstartup.a(cpu_syspage_memory.o)
 .eh_frame      0x0000000000002920       0x28 C:/Users/jukken/rpi4_hyp_803/src/hardware/startup/boards/../../../../install/aarch64le/usr/lib\libstartup.a(cpuid_a75.o)
 .eh_frame      0x0000000000002948       0x28 C:/Users/jukken/rpi4_hyp_803/src/hardware/startup/boards/../../../../install/aarch64le/usr/lib\libstartup.a(cpuid_a76.o)
 .eh_frame      0x0000000000002970       0x28 C:/Users/jukken/rpi4_hyp_803/src/hardware/startup/boards/../../../../install/aarch64le/usr/lib\libstartup.a(cpuid_d20.o)
 .eh_frame      0x0000000000002998       0x28 C:/Users/jukken/rpi4_hyp_803/src/hardware/startup/boards/../../../../install/aarch64le/usr/lib\libstartup.a(crash_done.o)
 .eh_frame      0x00000000000029c0       0x28 C:/Users/jukken/rpi4_hyp_803/src/hardware/startup/boards/../../../../install/aarch64le/usr/lib\libstartup.a(dummy_print_char.o)
 .eh_frame      0x00000000000029e8       0xb0 C:/Users/jukken/rpi4_hyp_803/src/hardware/startup/boards/../../../../install/aarch64le/usr/lib\libstartup.a(elf.o)
 .eh_frame      0x0000000000002a98       0x98 C:/Users/jukken/rpi4_hyp_803/src/hardware/startup/boards/../../../../install/aarch64le/usr/lib\libstartup.a(elf32.o)
 .eh_frame      0x0000000000002b30       0x98 C:/Users/jukken/rpi4_hyp_803/src/hardware/startup/boards/../../../../install/aarch64le/usr/lib\libstartup.a(elf64.o)
 .eh_frame      0x0000000000002bc8       0x28 C:/Users/jukken/rpi4_hyp_803/src/hardware/startup/boards/../../../../install/aarch64le/usr/lib\libstartup.a(elf_map.o)
 .eh_frame      0x0000000000002bf0       0x48 C:/Users/jukken/rpi4_hyp_803/src/hardware/startup/boards/../../../../install/aarch64le/usr/lib\libstartup.a(hwi_add_device.o)
 .eh_frame      0x0000000000002c38       0x30 C:/Users/jukken/rpi4_hyp_803/src/hardware/startup/boards/../../../../install/aarch64le/usr/lib\libstartup.a(hwi_default.o)
 .eh_frame      0x0000000000002c68       0x80 C:/Users/jukken/rpi4_hyp_803/src/hardware/startup/boards/../../../../install/aarch64le/usr/lib\libstartup.a(hypervisor.o)
 .eh_frame      0x0000000000002ce8       0x48 C:/Users/jukken/rpi4_hyp_803/src/hardware/startup/boards/../../../../install/aarch64le/usr/lib\libstartup.a(init_mitigation_mem.o)
 .eh_frame      0x0000000000002d30       0x28 C:/Users/jukken/rpi4_hyp_803/src/hardware/startup/boards/../../../../install/aarch64le/usr/lib\libstartup.a(rtc_time.o)
 .eh_frame      0x0000000000002d58       0x28 C:/Users/jukken/rpi4_hyp_803/src/hardware/startup/boards/../../../../install/aarch64le/usr/lib\libstartup.a(startup_info.o)
 .eh_frame      0x0000000000002d80       0x50 C:/Users/jukken/qnx803/target/qnx/aarch64le/usr/lib\libucl.a(n2b_d.o)
 .eh_frame      0x0000000000002dd0       0x60 C:/Users/jukken/qnx803/target/qnx/aarch64le/usr/lib\libdrvr.a(hwi_find_unit.o)
 .eh_frame      0x0000000000002e30       0x58 C:/Users/jukken/qnx803/target/qnx/aarch64le/usr/lib\libdrvr.a(hwi_tag_find.o)
 .eh_frame      0x0000000000002e88       0x40 C:/Users/jukken/qnx803/target/qnx/aarch64le/usr/lib\libdrvr.a(hwi_find_bus.o)
 .eh_frame      0x0000000000002ec8       0x40 C:/Users/jukken/qnx803/target/qnx/aarch64le/usr/lib\libdrvr.a(hwi_find_device.o)
 .eh_frame      0x0000000000002f08       0x58 C:/Users/jukken/qnx803/target/qnx/aarch64le/usr/lib\libdrvr.a(hwi_find.o)
 .eh_frame      0x0000000000002f60      0x1a8 C:/Users/jukken/qnx803/target/qnx/aarch64le/usr/lib\libfdt.a(fdt.o)
 .eh_frame      0x0000000000003108      0x770 C:/Users/jukken/qnx803/target/qnx/aarch64le/usr/lib\libfdt.a(fdt_ro.o)
 .eh_frame      0x0000000000003878       0x58 C:/Users/jukken/qnx803/target/qnx/aarch64le/lib\libc.a(hwi_find_item.o)
 .eh_frame      0x00000000000038d0       0x48 C:/Users/jukken/qnx803/target/qnx/aarch64le/lib\libc.a(hwi_next_tag.o)
 .eh_frame      0x0000000000003918       0x38 C:/Users/jukken/qnx803/target/qnx/aarch64le/lib\libc.a(hwi_off2tag.o)
 .eh_frame      0x0000000000003950       0x38 C:/Users/jukken/qnx803/target/qnx/aarch64le/lib\libc.a(hwi_tag2off.o)
 .eh_frame      0x0000000000003988       0x28 C:/Users/jukken/qnx803/target/qnx/aarch64le/lib\libc.a(memchr.o)
 .eh_frame      0x00000000000039b0       0x28 C:/Users/jukken/qnx803/target/qnx/aarch64le/lib\libc.a(memset.o)
 .eh_frame      0x00000000000039d8       0x28 C:/Users/jukken/qnx803/target/qnx/aarch64le/lib\libc.a(strchr.o)
 .eh_frame      0x0000000000003a00       0x28 C:/Users/jukken/qnx803/target/qnx/aarch64le/lib\libc.a(strlcpy.o)
 .eh_frame      0x0000000000003a28       0x28 C:/Users/jukken/qnx803/target/qnx/aarch64le/lib\libc.a(strnlen.o)
 .eh_frame      0x0000000000003a50       0x28 C:/Users/jukken/qnx803/target/qnx/aarch64le/lib\libc.a(strrchr.o)
 .eh_frame      0x0000000000003a78       0x28 C:/Users/jukken/qnx803/target/qnx/aarch64le/lib\libc.a(strtol.o)
 .eh_frame      0x0000000000003aa0       0x50 C:/Users/jukken/qnx803/target/qnx/aarch64le/lib\libc.a(__progname.o)
 .eh_frame      0x0000000000003af0       0xc0 C:/Users/jukken/qnx803/target/qnx/aarch64le/lib\libc.a(_ssp.o)
 .eh_frame      0x0000000000003bb0       0x48 C:/Users/jukken/qnx803/target/qnx/aarch64le/lib\libc.a(getsubopt.o)
 .eh_frame      0x0000000000003bf8       0x60 C:/Users/jukken/qnx803/target/qnx/aarch64le/lib\libc.a(xstoint.o)
 .eh_frame      0x0000000000003c58       0x28 C:/Users/jukken/qnx803/target/qnx/aarch64le/lib\libc.a(strncmp.o)
 .eh_frame      0x0000000000003c80       0x34 C:/Users/jukken/qnx803/target/qnx/aarch64le/lib\libc.a(xctype.o)
                                         0x38 (size before relaxing)

.sframe
 *(.sframe)

.gcc_except_table
 *(.gcc_except_table)

.gnu_extab
 *(.gnu_extab*)

.exception_ranges
 *(.exception_ranges)

.eh_frame
 *(.eh_frame)

.sframe
 *(.sframe)

.gnu_extab
 *(.gnu_extab)

.gcc_except_table
 *(.gcc_except_table)

.exception_ranges
 *(.exception_ranges)

.tdata
 *(.tdata)

.tbss
 *(.tbss)

.jcr
 *(.jcr)

.dynamic
 *(.dynamic)

.got
 *(.got)

.got.plt
 *(.got.plt)

.data           0x0000000000000000     0x3338
 *(.data)
 .data          0x0000000000000000        0x0 _start.o
 .data          0x0000000000000000        0x0 bcm2711_init_board.o
 .data          0x0000000000000000        0x0 bcm2711_init_raminfo.o
 .data          0x0000000000000000        0x0 board_smp.o
 .data          0x0000000000000000        0x0 callout_debug_miniuart.o
 .data          0x0000000000000000       0x10 callout_interrupt_bcm2711_msi.o
 .data          0x0000000000000010        0x0 callout_reboot_bcm2711.o
 .data          0x0000000000000010        0x0 hw_ser_miniuart.o
 .data          0x0000000000000010        0x0 init_asinfo.o
 .data          0x0000000000000010       0xa8 init_board_type.o
 .data          0x00000000000000b8        0x0 init_hwinfo.o
 .data          0x00000000000000b8        0x0 init_intrinfo.o
 .data          0x00000000000000b8        0x0 init_wdt.o
 .data          0x00000000000000b8        0x0 main.o
 .data          0x00000000000000b8        0x0 mbox.o
 .data          0x00000000000000b8       0x59 rpi4_board_config.o
 *fill*         0x0000000000000111        0x7 
 .data          0x0000000000000118       0x20 C:/Users/jukken/rpi4_hyp_803/src/hardware/startup/boards/../../../../install/aarch64le/usr/lib\libstartup.a(_main.o)
                0x0000000000000118                smp_hook_rtn
                0x0000000000000120                first_bootstrap_start_vaddr
                0x0000000000000128                system_dcache_idx
                0x000000000000012c                system_icache_idx
                0x0000000000000130                max_cpus
                0x0000000000000134                paddr_bits
 .data          0x0000000000000138        0x0 C:/Users/jukken/rpi4_hyp_803/src/hardware/startup/boards/../../../../install/aarch64le/usr/lib\libstartup.a(add_interrupt.o)
 .data          0x0000000000000138        0x0 C:/Users/jukken/rpi4_hyp_803/src/hardware/startup/boards/../../../../install/aarch64le/usr/lib\libstartup.a(as_add_containing.o)
 .data          0x0000000000000138        0x0 C:/Users/jukken/rpi4_hyp_803/src/hardware/startup/boards/../../../../install/aarch64le/usr/lib\libstartup.a(as_find_containing.o)
 .data          0x0000000000000138        0x0 C:/Users/jukken/rpi4_hyp_803/src/hardware/startup/boards/../../../../install/aarch64le/usr/lib\libstartup.a(as_off2info.o)
 .data          0x0000000000000138        0x0 C:/Users/jukken/rpi4_hyp_803/src/hardware/startup/boards/../../../../install/aarch64le/usr/lib\libstartup.a(board_init.o)
 .data          0x0000000000000138        0x0 C:/Users/jukken/rpi4_hyp_803/src/hardware/startup/boards/../../../../install/aarch64le/usr/lib\libstartup.a(bootstrap_cmdline.o)
 .data          0x0000000000000138        0x0 C:/Users/jukken/rpi4_hyp_803/src/hardware/startup/boards/../../../../install/aarch64le/usr/lib\libstartup.a(callout_debug_pl011.o)
 .data          0x0000000000000138        0x0 C:/Users/jukken/rpi4_hyp_803/src/hardware/startup/boards/../../../../install/aarch64le/usr/lib\libstartup.a(callout_sendipi_gic_v2.o)
 .data          0x0000000000000138        0x8 C:/Users/jukken/rpi4_hyp_803/src/hardware/startup/boards/../../../../install/aarch64le/usr/lib\libstartup.a(callouts.o)
                0x0000000000000138                callout_output_rtn
 .data          0x0000000000000140        0x0 C:/Users/jukken/rpi4_hyp_803/src/hardware/startup/boards/../../../../install/aarch64le/usr/lib\libstartup.a(common_options.o)
 .data          0x0000000000000140        0x0 C:/Users/jukken/rpi4_hyp_803/src/hardware/startup/boards/../../../../install/aarch64le/usr/lib\libstartup.a(cpu_cluster_add.o)
 .data          0x0000000000000140       0x50 C:/Users/jukken/rpi4_hyp_803/src/hardware/startup/boards/../../../../install/aarch64le/usr/lib\libstartup.a(cpu_common_options.o)
 .data          0x0000000000000190       0x14 C:/Users/jukken/rpi4_hyp_803/src/hardware/startup/boards/../../../../install/aarch64le/usr/lib\libstartup.a(cpu_startup.o)
                0x0000000000000190                __page_size
                0x0000000000000198                ssbs_active
                0x000000000000019c                spectre_v2_active
                0x00000000000001a0                meltdown_active
 *fill*         0x00000000000001a4        0xc 
 .data          0x00000000000001b0      0xc10 C:/Users/jukken/rpi4_hyp_803/src/hardware/startup/boards/../../../../install/aarch64le/usr/lib\libstartup.a(cstart.o)
                0x00000000000001b0                boot_args
                0x00000000000001c0                stack_addr_lo
                0x0000000000000dc0                stack_addr_hi
                0x0000000000000dc0                stack
 .data          0x0000000000000dc0        0x0 C:/Users/jukken/rpi4_hyp_803/src/hardware/startup/boards/../../../../install/aarch64le/usr/lib\libstartup.a(debug.o)
 .data          0x0000000000000dc0        0x0 C:/Users/jukken/rpi4_hyp_803/src/hardware/startup/boards/../../../../install/aarch64le/usr/lib\libstartup.a(fdt_init_bootopt.o)
 .data          0x0000000000000dc0        0x0 C:/Users/jukken/rpi4_hyp_803/src/hardware/startup/boards/../../../../install/aarch64le/usr/lib\libstartup.a(fdt_vars.o)
 .data          0x0000000000000dc0        0x0 C:/Users/jukken/rpi4_hyp_803/src/hardware/startup/boards/../../../../install/aarch64le/usr/lib\libstartup.a(getopt.o)
 .data          0x0000000000000dc0        0x0 C:/Users/jukken/rpi4_hyp_803/src/hardware/startup/boards/../../../../install/aarch64le/usr/lib\libstartup.a(getsize.o)
 .data          0x0000000000000dc0        0x0 C:/Users/jukken/rpi4_hyp_803/src/hardware/startup/boards/../../../../install/aarch64le/usr/lib\libstartup.a(gic.o)
 .data          0x0000000000000dc0       0xc0 C:/Users/jukken/rpi4_hyp_803/src/hardware/startup/boards/../../../../install/aarch64le/usr/lib\libstartup.a(gic_v2.o)
 .data          0x0000000000000e80        0x0 C:/Users/jukken/rpi4_hyp_803/src/hardware/startup/boards/../../../../install/aarch64le/usr/lib\libstartup.a(hw_serpl011.o)
 .data          0x0000000000000e80        0x0 C:/Users/jukken/rpi4_hyp_803/src/hardware/startup/boards/../../../../install/aarch64le/usr/lib\libstartup.a(hwi_add_nanospin.o)
 .data          0x0000000000000e80        0x0 C:/Users/jukken/rpi4_hyp_803/src/hardware/startup/boards/../../../../install/aarch64le/usr/lib\libstartup.a(hwi_alloc.o)
 .data          0x0000000000000e80        0x0 C:/Users/jukken/rpi4_hyp_803/src/hardware/startup/boards/../../../../install/aarch64le/usr/lib\libstartup.a(hwi_find_as.o)
 .data          0x0000000000000e80        0x0 C:/Users/jukken/rpi4_hyp_803/src/hardware/startup/boards/../../../../install/aarch64le/usr/lib\libstartup.a(hwidev_add.o)
 .data          0x0000000000000e80        0x0 C:/Users/jukken/rpi4_hyp_803/src/hardware/startup/boards/../../../../install/aarch64le/usr/lib\libstartup.a(hwidev_add_dma.o)
 .data          0x0000000000000e80        0x0 C:/Users/jukken/rpi4_hyp_803/src/hardware/startup/boards/../../../../install/aarch64le/usr/lib\libstartup.a(hwidev_add_enet.o)
 .data          0x0000000000000e80        0x0 C:/Users/jukken/rpi4_hyp_803/src/hardware/startup/boards/../../../../install/aarch64le/usr/lib\libstartup.a(hwidev_add_timer.o)
 .data          0x0000000000000e80        0x0 C:/Users/jukken/rpi4_hyp_803/src/hardware/startup/boards/../../../../install/aarch64le/usr/lib\libstartup.a(hwitag_add_common.o)
 .data          0x0000000000000e80        0x0 C:/Users/jukken/rpi4_hyp_803/src/hardware/startup/boards/../../../../install/aarch64le/usr/lib\libstartup.a(hwitag_add_inputclk.o)
 .data          0x0000000000000e80        0x0 C:/Users/jukken/rpi4_hyp_803/src/hardware/startup/boards/../../../../install/aarch64le/usr/lib\libstartup.a(hwitag_add_irq.o)
 .data          0x0000000000000e80        0x0 C:/Users/jukken/rpi4_hyp_803/src/hardware/startup/boards/../../../../install/aarch64le/usr/lib\libstartup.a(hwitag_add_location.o)
 .data          0x0000000000000e80        0x0 C:/Users/jukken/rpi4_hyp_803/src/hardware/startup/boards/../../../../install/aarch64le/usr/lib\libstartup.a(hwitag_add_nicaddr.o)
 .data          0x0000000000000e80        0x0 C:/Users/jukken/rpi4_hyp_803/src/hardware/startup/boards/../../../../install/aarch64le/usr/lib\libstartup.a(hwitag_add_nicphyaddr.o)
 .data          0x0000000000000e80        0x0 C:/Users/jukken/rpi4_hyp_803/src/hardware/startup/boards/../../../../install/aarch64le/usr/lib\libstartup.a(hwitag_add_regname.o)
 .data          0x0000000000000e80        0x0 C:/Users/jukken/rpi4_hyp_803/src/hardware/startup/boards/../../../../install/aarch64le/usr/lib\libstartup.a(hwitag_set_inputclk.o)
 .data          0x0000000000000e80        0x0 C:/Users/jukken/rpi4_hyp_803/src/hardware/startup/boards/../../../../install/aarch64le/usr/lib\libstartup.a(hwitag_set_ivec.o)
 .data          0x0000000000000e80        0x0 C:/Users/jukken/rpi4_hyp_803/src/hardware/startup/boards/../../../../install/aarch64le/usr/lib\libstartup.a(hypervisor_setup.o)
 .data          0x0000000000000e80        0x0 C:/Users/jukken/rpi4_hyp_803/src/hardware/startup/boards/../../../../install/aarch64le/usr/lib\libstartup.a(init_cacheattr.o)
 .data          0x0000000000000e80        0x0 C:/Users/jukken/rpi4_hyp_803/src/hardware/startup/boards/../../../../install/aarch64le/usr/lib\libstartup.a(init_cpuinfo.o)
 .data          0x0000000000000e80       0x18 C:/Users/jukken/rpi4_hyp_803/src/hardware/startup/boards/../../../../install/aarch64le/usr/lib\libstartup.a(init_mmu.o)
                0x0000000000000e80                tcr_el1
                0x0000000000000e88                sctlr_el1
                0x0000000000000e90                mair_el1
 .data          0x0000000000000e98        0x0 C:/Users/jukken/rpi4_hyp_803/src/hardware/startup/boards/../../../../install/aarch64le/usr/lib\libstartup.a(init_qtime.o)
 .data          0x0000000000000e98        0x0 C:/Users/jukken/rpi4_hyp_803/src/hardware/startup/boards/../../../../install/aarch64le/usr/lib\libstartup.a(init_qtime_v8gt.o)
 .data          0x0000000000000e98        0x0 C:/Users/jukken/rpi4_hyp_803/src/hardware/startup/boards/../../../../install/aarch64le/usr/lib\libstartup.a(init_smp.o)
 .data          0x0000000000000e98        0x0 C:/Users/jukken/rpi4_hyp_803/src/hardware/startup/boards/../../../../install/aarch64le/usr/lib\libstartup.a(init_system_private.o)
 .data          0x0000000000000e98        0x0 C:/Users/jukken/rpi4_hyp_803/src/hardware/startup/boards/../../../../install/aarch64le/usr/lib\libstartup.a(invert_timer_freq.o)
 .data          0x0000000000000e98        0x8 C:/Users/jukken/rpi4_hyp_803/src/hardware/startup/boards/../../../../install/aarch64le/usr/lib\libstartup.a(jtag.o)
 .data          0x0000000000000ea0        0x8 C:/Users/jukken/rpi4_hyp_803/src/hardware/startup/boards/../../../../install/aarch64le/usr/lib\libstartup.a(kprintf.o)
 .data          0x0000000000000ea8        0x0 C:/Users/jukken/rpi4_hyp_803/src/hardware/startup/boards/../../../../install/aarch64le/usr/lib\libstartup.a(load_ifs.o)
 .data          0x0000000000000ea8        0x0 C:/Users/jukken/rpi4_hyp_803/src/hardware/startup/boards/../../../../install/aarch64le/usr/lib\libstartup.a(map_callout_io.o)
 .data          0x0000000000000ea8        0x0 C:/Users/jukken/rpi4_hyp_803/src/hardware/startup/boards/../../../../install/aarch64le/usr/lib\libstartup.a(map_startup_mem.o)
 .data          0x0000000000000ea8        0x0 C:/Users/jukken/rpi4_hyp_803/src/hardware/startup/boards/../../../../install/aarch64le/usr/lib\libstartup.a(memcpy.o)
 .data          0x0000000000000ea8        0x0 C:/Users/jukken/rpi4_hyp_803/src/hardware/startup/boards/../../../../install/aarch64le/usr/lib\libstartup.a(memfuncs.o)
 .data          0x0000000000000ea8        0x0 C:/Users/jukken/rpi4_hyp_803/src/hardware/startup/boards/../../../../install/aarch64le/usr/lib\libstartup.a(memmove.o)
 .data          0x0000000000000ea8      0x180 C:/Users/jukken/rpi4_hyp_803/src/hardware/startup/boards/../../../../install/aarch64le/usr/lib\libstartup.a(print_sysp.o)
 .data          0x0000000000001028        0x8 C:/Users/jukken/rpi4_hyp_803/src/hardware/startup/boards/../../../../install/aarch64le/usr/lib\libstartup.a(ram.o)
 .data          0x0000000000001030        0x0 C:/Users/jukken/rpi4_hyp_803/src/hardware/startup/boards/../../../../install/aarch64le/usr/lib\libstartup.a(restore_ifs.o)
 .data          0x0000000000001030     0x2000 C:/Users/jukken/rpi4_hyp_803/src/hardware/startup/boards/../../../../install/aarch64le/usr/lib\libstartup.a(smp_start.o)
 .data          0x0000000000003030        0x0 C:/Users/jukken/rpi4_hyp_803/src/hardware/startup/boards/../../../../install/aarch64le/usr/lib\libstartup.a(ssp.o)
 .data          0x0000000000003030        0x0 C:/Users/jukken/rpi4_hyp_803/src/hardware/startup/boards/../../../../install/aarch64le/usr/lib\libstartup.a(startnext.o)
 .data          0x0000000000003030        0x0 C:/Users/jukken/rpi4_hyp_803/src/hardware/startup/boards/../../../../install/aarch64le/usr/lib\libstartup.a(strings.o)
 .data          0x0000000000003030        0x0 C:/Users/jukken/rpi4_hyp_803/src/hardware/startup/boards/../../../../install/aarch64le/usr/lib\libstartup.a(strtoul.o)
 .data          0x0000000000003030        0x0 C:/Users/jukken/rpi4_hyp_803/src/hardware/startup/boards/../../../../install/aarch64le/usr/lib\libstartup.a(syspage_memory.o)
 .data          0x0000000000003030        0x0 C:/Users/jukken/rpi4_hyp_803/src/hardware/startup/boards/../../../../install/aarch64le/usr/lib\libstartup.a(tweak_cmdline.o)
 .data          0x0000000000003030        0x0 C:/Users/jukken/rpi4_hyp_803/src/hardware/startup/boards/../../../../install/aarch64le/usr/lib\libstartup.a(uncompress.o)
 .data          0x0000000000003030        0x0 C:/Users/jukken/rpi4_hyp_803/src/hardware/startup/boards/../../../../install/aarch64le/usr/lib\libstartup.a(uncompress_ucl.o)
 .data          0x0000000000003030        0x0 C:/Users/jukken/rpi4_hyp_803/src/hardware/startup/boards/../../../../install/aarch64le/usr/lib\libstartup.a(vbar_default.o)
 .data          0x0000000000003030        0x0 C:/Users/jukken/rpi4_hyp_803/src/hardware/startup/boards/../../../../install/aarch64le/usr/lib\libstartup.a(_start_el1.o)
 .data          0x0000000000003030        0x0 C:/Users/jukken/rpi4_hyp_803/src/hardware/startup/boards/../../../../install/aarch64le/usr/lib\libstartup.a(aarch64_cache_flush.o)
 .data          0x0000000000003030       0xa0 C:/Users/jukken/rpi4_hyp_803/src/hardware/startup/boards/../../../../install/aarch64le/usr/lib\libstartup.a(aarch64_cpuid.o)
                0x0000000000003030                aarch64_cpuid
 .data          0x00000000000030d0        0x0 C:/Users/jukken/rpi4_hyp_803/src/hardware/startup/boards/../../../../install/aarch64le/usr/lib\libstartup.a(aarch64_cpuspeed.o)
 .data          0x00000000000030d0        0x0 C:/Users/jukken/rpi4_hyp_803/src/hardware/startup/boards/../../../../install/aarch64le/usr/lib\libstartup.a(aarch64_map.o)
 .data          0x00000000000030d0        0x0 C:/Users/jukken/rpi4_hyp_803/src/hardware/startup/boards/../../../../install/aarch64le/usr/lib\libstartup.a(add_cache.o)
 .data          0x00000000000030d0        0x0 C:/Users/jukken/rpi4_hyp_803/src/hardware/startup/boards/../../../../install/aarch64le/usr/lib\libstartup.a(alloc_qtime.o)
 .data          0x00000000000030d0        0x0 C:/Users/jukken/rpi4_hyp_803/src/hardware/startup/boards/../../../../install/aarch64le/usr/lib\libstartup.a(ap_fail.o)
 .data          0x00000000000030d0        0x0 C:/Users/jukken/rpi4_hyp_803/src/hardware/startup/boards/../../../../install/aarch64le/usr/lib\libstartup.a(as_add.o)
 .data          0x00000000000030d0        0x0 C:/Users/jukken/rpi4_hyp_803/src/hardware/startup/boards/../../../../install/aarch64le/usr/lib\libstartup.a(as_add64.o)
 .data          0x00000000000030d0        0x0 C:/Users/jukken/rpi4_hyp_803/src/hardware/startup/boards/../../../../install/aarch64le/usr/lib\libstartup.a(as_default.o)
 .data          0x00000000000030d0        0x0 C:/Users/jukken/rpi4_hyp_803/src/hardware/startup/boards/../../../../install/aarch64le/usr/lib\libstartup.a(as_find.o)
 .data          0x00000000000030d0        0x0 C:/Users/jukken/rpi4_hyp_803/src/hardware/startup/boards/../../../../install/aarch64le/usr/lib\libstartup.a(board_sysctl.o)
 .data          0x00000000000030d0        0x0 C:/Users/jukken/rpi4_hyp_803/src/hardware/startup/boards/../../../../install/aarch64le/usr/lib\libstartup.a(boot_regs.o)
 .data          0x00000000000030d0        0x0 C:/Users/jukken/rpi4_hyp_803/src/hardware/startup/boards/../../../../install/aarch64le/usr/lib\libstartup.a(callout_cache_armv8.o)
 .data          0x00000000000030d0        0x0 C:/Users/jukken/rpi4_hyp_803/src/hardware/startup/boards/../../../../install/aarch64le/usr/lib\libstartup.a(callout_interrupt_gic_v2.o)
 .data          0x00000000000030d0        0x0 C:/Users/jukken/rpi4_hyp_803/src/hardware/startup/boards/../../../../install/aarch64le/usr/lib\libstartup.a(callout_smp_spin.o)
 .data          0x00000000000030d0        0x0 C:/Users/jukken/rpi4_hyp_803/src/hardware/startup/boards/../../../../install/aarch64le/usr/lib\libstartup.a(cpu_startnext.o)
 .data          0x00000000000030d0        0x4 C:/Users/jukken/rpi4_hyp_803/src/hardware/startup/boards/../../../../install/aarch64le/usr/lib\libstartup.a(cpu_syspage_memory.o)
                0x00000000000030d0                syspage_roundup
 *fill*         0x00000000000030d4        0x4 
 .data          0x00000000000030d8       0x20 C:/Users/jukken/rpi4_hyp_803/src/hardware/startup/boards/../../../../install/aarch64le/usr/lib\libstartup.a(cpuid_a35.o)
                0x00000000000030d8                cpuid_a35
 .data          0x00000000000030f8       0x20 C:/Users/jukken/rpi4_hyp_803/src/hardware/startup/boards/../../../../install/aarch64le/usr/lib\libstartup.a(cpuid_a53.o)
                0x00000000000030f8                cpuid_a53
 .data          0x0000000000003118       0x20 C:/Users/jukken/rpi4_hyp_803/src/hardware/startup/boards/../../../../install/aarch64le/usr/lib\libstartup.a(cpuid_a55.o)
                0x0000000000003118                cpuid_a55
 .data          0x0000000000003138       0x20 C:/Users/jukken/rpi4_hyp_803/src/hardware/startup/boards/../../../../install/aarch64le/usr/lib\libstartup.a(cpuid_a57.o)
                0x0000000000003138                cpuid_a57
 .data          0x0000000000003158       0x20 C:/Users/jukken/rpi4_hyp_803/src/hardware/startup/boards/../../../../install/aarch64le/usr/lib\libstartup.a(cpuid_a72.o)
                0x0000000000003158                cpuid_a72
 .data          0x0000000000003178       0x20 C:/Users/jukken/rpi4_hyp_803/src/hardware/startup/boards/../../../../install/aarch64le/usr/lib\libstartup.a(cpuid_a720.o)
                0x0000000000003178                cpuid_a720
 .data          0x0000000000003198       0x20 C:/Users/jukken/rpi4_hyp_803/src/hardware/startup/boards/../../../../install/aarch64le/usr/lib\libstartup.a(cpuid_a75.o)
                0x0000000000003198                cpuid_a75
 .data          0x00000000000031b8       0x20 C:/Users/jukken/rpi4_hyp_803/src/hardware/startup/boards/../../../../install/aarch64le/usr/lib\libstartup.a(cpuid_a76.o)
                0x00000000000031b8                cpuid_a76
 .data          0x00000000000031d8       0x20 C:/Users/jukken/rpi4_hyp_803/src/hardware/startup/boards/../../../../install/aarch64le/usr/lib\libstartup.a(cpuid_a78ae.o)
                0x00000000000031d8                cpuid_a78ae
 .data          0x00000000000031f8       0x20 C:/Users/jukken/rpi4_hyp_803/src/hardware/startup/boards/../../../../install/aarch64le/usr/lib\libstartup.a(cpuid_d15.o)
                0x00000000000031f8                cpuid_d15
 .data          0x0000000000003218       0x20 C:/Users/jukken/rpi4_hyp_803/src/hardware/startup/boards/../../../../install/aarch64le/usr/lib\libstartup.a(cpuid_d20.o)
                0x0000000000003218                cpuid_d20
 .data          0x0000000000003238       0x20 C:/Users/jukken/rpi4_hyp_803/src/hardware/startup/boards/../../../../install/aarch64le/usr/lib\libstartup.a(cpuid_n1.o)
                0x0000000000003238                cpuid_n1
 .data          0x0000000000003258       0x20 C:/Users/jukken/rpi4_hyp_803/src/hardware/startup/boards/../../../../install/aarch64le/usr/lib\libstartup.a(cpuid_neo_v1.o)
                0x0000000000003258                cpuid_neo_v1
 .data          0x0000000000003278       0x20 C:/Users/jukken/rpi4_hyp_803/src/hardware/startup/boards/../../../../install/aarch64le/usr/lib\libstartup.a(cpuid_neo_v2.o)
                0x0000000000003278                cpuid_neo_v2
 .data          0x0000000000003298       0x20 C:/Users/jukken/rpi4_hyp_803/src/hardware/startup/boards/../../../../install/aarch64le/usr/lib\libstartup.a(cpuid_v8_aem.o)
                0x0000000000003298                cpuid_v8_aem
 .data          0x00000000000032b8       0x20 C:/Users/jukken/rpi4_hyp_803/src/hardware/startup/boards/../../../../install/aarch64le/usr/lib\libstartup.a(cpuid_v8_fm.o)
                0x00000000000032b8                cpuid_v8_fm
 .data          0x00000000000032d8       0x20 C:/Users/jukken/rpi4_hyp_803/src/hardware/startup/boards/../../../../install/aarch64le/usr/lib\libstartup.a(cpuid_x2.o)
                0x00000000000032d8                cpuid_x2
 .data          0x00000000000032f8       0x20 C:/Users/jukken/rpi4_hyp_803/src/hardware/startup/boards/../../../../install/aarch64le/usr/lib\libstartup.a(cpuid_x4.o)
                0x00000000000032f8                cpuid_x4
 .data          0x0000000000003318       0x20 C:/Users/jukken/rpi4_hyp_803/src/hardware/startup/boards/../../../../install/aarch64le/usr/lib\libstartup.a(cpuid_x925.o)
                0x0000000000003318                cpuid_x925
 .data          0x0000000000003338        0x0 C:/Users/jukken/rpi4_hyp_803/src/hardware/startup/boards/../../../../install/aarch64le/usr/lib\libstartup.a(crash_done.o)
 .data          0x0000000000003338        0x0 C:/Users/jukken/rpi4_hyp_803/src/hardware/startup/boards/../../../../install/aarch64le/usr/lib\libstartup.a(dummy_print_char.o)
 .data          0x0000000000003338        0x0 C:/Users/jukken/rpi4_hyp_803/src/hardware/startup/boards/../../../../install/aarch64le/usr/lib\libstartup.a(elf.o)
 .data          0x0000000000003338        0x0 C:/Users/jukken/rpi4_hyp_803/src/hardware/startup/boards/../../../../install/aarch64le/usr/lib\libstartup.a(elf32.o)
 .data          0x0000000000003338        0x0 C:/Users/jukken/rpi4_hyp_803/src/hardware/startup/boards/../../../../install/aarch64le/usr/lib\libstartup.a(elf64.o)
 .data          0x0000000000003338        0x0 C:/Users/jukken/rpi4_hyp_803/src/hardware/startup/boards/../../../../install/aarch64le/usr/lib\libstartup.a(elf_map.o)
 .data          0x0000000000003338        0x0 C:/Users/jukken/rpi4_hyp_803/src/hardware/startup/boards/../../../../install/aarch64le/usr/lib\libstartup.a(hwi_add_device.o)
 .data          0x0000000000003338        0x0 C:/Users/jukken/rpi4_hyp_803/src/hardware/startup/boards/../../../../install/aarch64le/usr/lib\libstartup.a(hwi_default.o)
 .data          0x0000000000003338        0x0 C:/Users/jukken/rpi4_hyp_803/src/hardware/startup/boards/../../../../install/aarch64le/usr/lib\libstartup.a(hypervisor.o)
 .data          0x0000000000003338        0x0 C:/Users/jukken/rpi4_hyp_803/src/hardware/startup/boards/../../../../install/aarch64le/usr/lib\libstartup.a(hypervisor_enable.o)
 .data          0x0000000000003338        0x0 C:/Users/jukken/rpi4_hyp_803/src/hardware/startup/boards/../../../../install/aarch64le/usr/lib\libstartup.a(init_mitigation_mem.o)
 .data          0x0000000000003338        0x0 C:/Users/jukken/rpi4_hyp_803/src/hardware/startup/boards/../../../../install/aarch64le/usr/lib\libstartup.a(rtc_time.o)
 .data          0x0000000000003338        0x0 C:/Users/jukken/rpi4_hyp_803/src/hardware/startup/boards/../../../../install/aarch64le/usr/lib\libstartup.a(startup_info.o)
 .data          0x0000000000003338        0x0 C:/Users/jukken/rpi4_hyp_803/src/hardware/startup/boards/../../../../install/aarch64le/usr/lib\libstartup.a(vstart.o)
 .data          0x0000000000003338        0x0 C:/Users/jukken/qnx803/target/qnx/aarch64le/usr/lib\libucl.a(n2b_d.o)
 .data          0x0000000000003338        0x0 C:/Users/jukken/qnx803/target/qnx/aarch64le/usr/lib\libdrvr.a(hwi_find_unit.o)
 .data          0x0000000000003338        0x0 C:/Users/jukken/qnx803/target/qnx/aarch64le/usr/lib\libdrvr.a(hwi_tag_find.o)
 .data          0x0000000000003338        0x0 C:/Users/jukken/qnx803/target/qnx/aarch64le/usr/lib\libdrvr.a(hwi_find_bus.o)
 .data          0x0000000000003338        0x0 C:/Users/jukken/qnx803/target/qnx/aarch64le/usr/lib\libdrvr.a(hwi_find_device.o)
 .data          0x0000000000003338        0x0 C:/Users/jukken/qnx803/target/qnx/aarch64le/usr/lib\libdrvr.a(hwi_find.o)
 .data          0x0000000000003338        0x0 C:/Users/jukken/qnx803/target/qnx/aarch64le/usr/lib\libfdt.a(fdt.o)
 .data          0x0000000000003338        0x0 C:/Users/jukken/qnx803/target/qnx/aarch64le/usr/lib\libfdt.a(fdt_ro.o)
 .data          0x0000000000003338        0x0 C:/Users/jukken/qnx803/target/qnx/aarch64le/lib\libc.a(hwi_find_item.o)
 .data          0x0000000000003338        0x0 C:/Users/jukken/qnx803/target/qnx/aarch64le/lib\libc.a(hwi_next_tag.o)
 .data          0x0000000000003338        0x0 C:/Users/jukken/qnx803/target/qnx/aarch64le/lib\libc.a(hwi_off2tag.o)
 .data          0x0000000000003338        0x0 C:/Users/jukken/qnx803/target/qnx/aarch64le/lib\libc.a(hwi_tag2off.o)
 .data          0x0000000000003338        0x0 C:/Users/jukken/qnx803/target/qnx/aarch64le/lib\libc.a(memchr.o)
 .data          0x0000000000003338        0x0 C:/Users/jukken/qnx803/target/qnx/aarch64le/lib\libc.a(memcmp.o)
 .data          0x0000000000003338        0x0 C:/Users/jukken/qnx803/target/qnx/aarch64le/lib\libc.a(memset.o)
 .data          0x0000000000003338        0x0 C:/Users/jukken/qnx803/target/qnx/aarch64le/lib\libc.a(strchr.o)
 .data          0x0000000000003338        0x0 C:/Users/jukken/qnx803/target/qnx/aarch64le/lib\libc.a(strcmp.o)
 .data          0x0000000000003338        0x0 C:/Users/jukken/qnx803/target/qnx/aarch64le/lib\libc.a(strlcpy.o)
 .data          0x0000000000003338        0x0 C:/Users/jukken/qnx803/target/qnx/aarch64le/lib\libc.a(strlen.o)
 .data          0x0000000000003338        0x0 C:/Users/jukken/qnx803/target/qnx/aarch64le/lib\libc.a(strnlen.o)
 .data          0x0000000000003338        0x0 C:/Users/jukken/qnx803/target/qnx/aarch64le/lib\libc.a(strrchr.o)
 .data          0x0000000000003338        0x0 C:/Users/jukken/qnx803/target/qnx/aarch64le/lib\libc.a(strtol.o)
 .data          0x0000000000003338        0x0 C:/Users/jukken/qnx803/target/qnx/aarch64le/lib\libc.a(__progname.o)
 .data          0x0000000000003338        0x0 C:/Users/jukken/qnx803/target/qnx/aarch64le/lib\libc.a(_ssp.o)
 .data          0x0000000000003338        0x0 C:/Users/jukken/qnx803/target/qnx/aarch64le/lib\libc.a(__stack_chk_guard.o)
 .data          0x0000000000003338        0x0 C:/Users/jukken/qnx803/target/qnx/aarch64le/lib\libc.a(getsubopt.o)
 .data          0x0000000000003338        0x0 C:/Users/jukken/qnx803/target/qnx/aarch64le/lib\libc.a(xstoint.o)
 .data          0x0000000000003338        0x0 C:/Users/jukken/qnx803/target/qnx/aarch64le/lib\libc.a(strncmp.o)
 .data          0x0000000000003338        0x0 C:/Users/jukken/qnx803/target/qnx/aarch64le/lib\libc.a(xctype.o)

.data.rel.ro.local
                0x0000000000000000       0x18
 .data.rel.ro.local
                0x0000000000000000       0x18 rpi4_board_config.o
                0x0000000000000000                rpi_board_config

.data.rel.local
                0x0000000000000000        0x8
 .data.rel.local
                0x0000000000000000        0x8 C:/Users/jukken/qnx803/target/qnx/aarch64le/lib\libc.a(xctype.o)
                0x0000000000000000                _Ctype

.data1
 *(.data1)

.bss            0x0000000000000000      0x7c0
 *(.bss)
 .bss           0x0000000000000000        0x0 _start.o
 .bss           0x0000000000000000        0x0 bcm2711_init_board.o
 .bss           0x0000000000000000        0x0 bcm2711_init_raminfo.o
 .bss           0x0000000000000000        0x0 board_smp.o
 .bss           0x0000000000000000        0x0 callout_debug_miniuart.o
 .bss           0x0000000000000000        0x0 callout_interrupt_bcm2711_msi.o
 .bss           0x0000000000000000        0x0 callout_reboot_bcm2711.o
 .bss           0x0000000000000000        0x0 hw_ser_miniuart.o
 .bss           0x0000000000000000        0x0 init_asinfo.o
 .bss           0x0000000000000000       0x80 init_board_type.o
 .bss           0x0000000000000080        0x0 init_hwinfo.o
 .bss           0x0000000000000080        0x0 init_intrinfo.o
 .bss           0x0000000000000080        0x0 init_wdt.o
 .bss           0x0000000000000080        0x8 main.o
 .bss           0x0000000000000088        0x0 mbox.o
 .bss           0x0000000000000088        0x0 rpi4_board_config.o
 .bss           0x0000000000000088      0x214 C:/Users/jukken/rpi4_hyp_803/src/hardware/startup/boards/../../../../install/aarch64le/usr/lib\libstartup.a(_main.o)
                0x0000000000000088                shdr
                0x0000000000000090                full_image_paddr
                0x0000000000000098                full_ram_paddr
                0x00000000000000a0                full_imagefs_paddr
                0x00000000000001e8                _argc
                0x00000000000001f0                _argv
                0x0000000000000200                uefi_exit_boot_services_f
                0x0000000000000208                uefi_io_resume_f
                0x0000000000000210                uefi_io_suspend_f
                0x0000000000000218                secure_system
                0x000000000000021c                misc_flags
                0x0000000000000220                _syspage_ptr
                0x0000000000000228                timer_diff
                0x0000000000000230                timer_start
                0x0000000000000238                timer_chip
                0x0000000000000248                patch_channel
                0x0000000000000250                dbg_device
                0x0000000000000270                timer_prog_time
                0x0000000000000278                timer_freq
                0x0000000000000280                cycles_freq
                0x0000000000000288                cpu_freq
                0x0000000000000290                reserved_ram_list
                0x0000000000000298                debug_flag
 *fill*         0x000000000000029c        0x4 
 .bss           0x00000000000002a0        0x8 C:/Users/jukken/rpi4_hyp_803/src/hardware/startup/boards/../../../../install/aarch64le/usr/lib\libstartup.a(add_interrupt.o)
 .bss           0x00000000000002a8        0x0 C:/Users/jukken/rpi4_hyp_803/src/hardware/startup/boards/../../../../install/aarch64le/usr/lib\libstartup.a(as_add_containing.o)
 .bss           0x00000000000002a8        0x0 C:/Users/jukken/rpi4_hyp_803/src/hardware/startup/boards/../../../../install/aarch64le/usr/lib\libstartup.a(as_find_containing.o)
 .bss           0x00000000000002a8        0x0 C:/Users/jukken/rpi4_hyp_803/src/hardware/startup/boards/../../../../install/aarch64le/usr/lib\libstartup.a(as_off2info.o)
 .bss           0x00000000000002a8        0x0 C:/Users/jukken/rpi4_hyp_803/src/hardware/startup/boards/../../../../install/aarch64le/usr/lib\libstartup.a(board_init.o)
 .bss           0x00000000000002a8        0x0 C:/Users/jukken/rpi4_hyp_803/src/hardware/startup/boards/../../../../install/aarch64le/usr/lib\libstartup.a(bootstrap_cmdline.o)
 .bss           0x00000000000002a8        0x0 C:/Users/jukken/rpi4_hyp_803/src/hardware/startup/boards/../../../../install/aarch64le/usr/lib\libstartup.a(callout_debug_pl011.o)
 .bss           0x00000000000002a8        0x0 C:/Users/jukken/rpi4_hyp_803/src/hardware/startup/boards/../../../../install/aarch64le/usr/lib\libstartup.a(callout_sendipi_gic_v2.o)
 .bss           0x00000000000002a8       0x20 C:/Users/jukken/rpi4_hyp_803/src/hardware/startup/boards/../../../../install/aarch64le/usr/lib\libstartup.a(callouts.o)
 .bss           0x00000000000002c8       0x14 C:/Users/jukken/rpi4_hyp_803/src/hardware/startup/boards/../../../../install/aarch64le/usr/lib\libstartup.a(common_options.o)
                0x00000000000002d8                in_hvc
 .bss           0x00000000000002dc        0x0 C:/Users/jukken/rpi4_hyp_803/src/hardware/startup/boards/../../../../install/aarch64le/usr/lib\libstartup.a(cpu_cluster_add.o)
 .bss           0x00000000000002dc        0x0 C:/Users/jukken/rpi4_hyp_803/src/hardware/startup/boards/../../../../install/aarch64le/usr/lib\libstartup.a(cpu_common_options.o)
 .bss           0x00000000000002dc        0xc C:/Users/jukken/rpi4_hyp_803/src/hardware/startup/boards/../../../../install/aarch64le/usr/lib\libstartup.a(cpu_startup.o)
                0x00000000000002dc                sve_requested
                0x00000000000002e0                cache_snooped
                0x00000000000002e4                pauth_active
 .bss           0x00000000000002e8        0x0 C:/Users/jukken/rpi4_hyp_803/src/hardware/startup/boards/../../../../install/aarch64le/usr/lib\libstartup.a(cstart.o)
 .bss           0x00000000000002e8        0x0 C:/Users/jukken/rpi4_hyp_803/src/hardware/startup/boards/../../../../install/aarch64le/usr/lib\libstartup.a(debug.o)
 .bss           0x00000000000002e8        0x0 C:/Users/jukken/rpi4_hyp_803/src/hardware/startup/boards/../../../../install/aarch64le/usr/lib\libstartup.a(fdt_init_bootopt.o)
 .bss           0x00000000000002e8       0x20 C:/Users/jukken/rpi4_hyp_803/src/hardware/startup/boards/../../../../install/aarch64le/usr/lib\libstartup.a(fdt_vars.o)
                0x00000000000002e8                fdt_boot_option
                0x00000000000002f0                fdt_size
                0x00000000000002f8                fdt_paddr
                0x0000000000000300                fdt
 .bss           0x0000000000000308       0x20 C:/Users/jukken/rpi4_hyp_803/src/hardware/startup/boards/../../../../install/aarch64le/usr/lib\libstartup.a(getopt.o)
                0x0000000000000310                optind
                0x0000000000000320                optarg
 .bss           0x0000000000000328        0x0 C:/Users/jukken/rpi4_hyp_803/src/hardware/startup/boards/../../../../install/aarch64le/usr/lib\libstartup.a(getsize.o)
 .bss           0x0000000000000328       0x48 C:/Users/jukken/rpi4_hyp_803/src/hardware/startup/boards/../../../../install/aarch64le/usr/lib\libstartup.a(gic.o)
                0x0000000000000328                gic_gicr_vaddr
                0x0000000000000330                gic_gicr_shift
                0x0000000000000338                gic_gicc_vaddr
                0x0000000000000340                gic_gicd_vaddr
                0x0000000000000348                gic_sendipi
                0x0000000000000350                gic_gicr
                0x0000000000000358                gic_gicc
                0x0000000000000360                gic_gicd
                0x0000000000000368                gic_cpu_init
 .bss           0x0000000000000370        0x0 C:/Users/jukken/rpi4_hyp_803/src/hardware/startup/boards/../../../../install/aarch64le/usr/lib\libstartup.a(gic_v2.o)
 .bss           0x0000000000000370        0x0 C:/Users/jukken/rpi4_hyp_803/src/hardware/startup/boards/../../../../install/aarch64le/usr/lib\libstartup.a(hw_serpl011.o)
 .bss           0x0000000000000370        0x0 C:/Users/jukken/rpi4_hyp_803/src/hardware/startup/boards/../../../../install/aarch64le/usr/lib\libstartup.a(hwi_add_nanospin.o)
 .bss           0x0000000000000370        0x8 C:/Users/jukken/rpi4_hyp_803/src/hardware/startup/boards/../../../../install/aarch64le/usr/lib\libstartup.a(hwi_alloc.o)
 .bss           0x0000000000000378        0x0 C:/Users/jukken/rpi4_hyp_803/src/hardware/startup/boards/../../../../install/aarch64le/usr/lib\libstartup.a(hwi_find_as.o)
 .bss           0x0000000000000378        0x0 C:/Users/jukken/rpi4_hyp_803/src/hardware/startup/boards/../../../../install/aarch64le/usr/lib\libstartup.a(hwidev_add.o)
 .bss           0x0000000000000378        0x0 C:/Users/jukken/rpi4_hyp_803/src/hardware/startup/boards/../../../../install/aarch64le/usr/lib\libstartup.a(hwidev_add_dma.o)
 .bss           0x0000000000000378        0x0 C:/Users/jukken/rpi4_hyp_803/src/hardware/startup/boards/../../../../install/aarch64le/usr/lib\libstartup.a(hwidev_add_enet.o)
 .bss           0x0000000000000378        0x0 C:/Users/jukken/rpi4_hyp_803/src/hardware/startup/boards/../../../../install/aarch64le/usr/lib\libstartup.a(hwidev_add_timer.o)
 .bss           0x0000000000000378        0x0 C:/Users/jukken/rpi4_hyp_803/src/hardware/startup/boards/../../../../install/aarch64le/usr/lib\libstartup.a(hwitag_add_common.o)
 .bss           0x0000000000000378        0x0 C:/Users/jukken/rpi4_hyp_803/src/hardware/startup/boards/../../../../install/aarch64le/usr/lib\libstartup.a(hwitag_add_inputclk.o)
 .bss           0x0000000000000378        0x0 C:/Users/jukken/rpi4_hyp_803/src/hardware/startup/boards/../../../../install/aarch64le/usr/lib\libstartup.a(hwitag_add_irq.o)
 .bss           0x0000000000000378        0x0 C:/Users/jukken/rpi4_hyp_803/src/hardware/startup/boards/../../../../install/aarch64le/usr/lib\libstartup.a(hwitag_add_location.o)
 .bss           0x0000000000000378        0x0 C:/Users/jukken/rpi4_hyp_803/src/hardware/startup/boards/../../../../install/aarch64le/usr/lib\libstartup.a(hwitag_add_nicaddr.o)
 .bss           0x0000000000000378        0x0 C:/Users/jukken/rpi4_hyp_803/src/hardware/startup/boards/../../../../install/aarch64le/usr/lib\libstartup.a(hwitag_add_nicphyaddr.o)
 .bss           0x0000000000000378        0x0 C:/Users/jukken/rpi4_hyp_803/src/hardware/startup/boards/../../../../install/aarch64le/usr/lib\libstartup.a(hwitag_add_regname.o)
 .bss           0x0000000000000378        0x0 C:/Users/jukken/rpi4_hyp_803/src/hardware/startup/boards/../../../../install/aarch64le/usr/lib\libstartup.a(hwitag_set_inputclk.o)
 .bss           0x0000000000000378        0x0 C:/Users/jukken/rpi4_hyp_803/src/hardware/startup/boards/../../../../install/aarch64le/usr/lib\libstartup.a(hwitag_set_ivec.o)
 .bss           0x0000000000000378        0x8 C:/Users/jukken/rpi4_hyp_803/src/hardware/startup/boards/../../../../install/aarch64le/usr/lib\libstartup.a(hypervisor_setup.o)
 .bss           0x0000000000000380        0x0 C:/Users/jukken/rpi4_hyp_803/src/hardware/startup/boards/../../../../install/aarch64le/usr/lib\libstartup.a(init_cacheattr.o)
 .bss           0x0000000000000380        0x0 C:/Users/jukken/rpi4_hyp_803/src/hardware/startup/boards/../../../../install/aarch64le/usr/lib\libstartup.a(init_cpuinfo.o)
 .bss           0x0000000000000380      0x208 C:/Users/jukken/rpi4_hyp_803/src/hardware/startup/boards/../../../../install/aarch64le/usr/lib\libstartup.a(init_mmu.o)
                0x0000000000000380                ttbr1
                0x0000000000000580                ttbr0
 .bss           0x0000000000000588        0x0 C:/Users/jukken/rpi4_hyp_803/src/hardware/startup/boards/../../../../install/aarch64le/usr/lib\libstartup.a(init_qtime.o)
 .bss           0x0000000000000588        0x0 C:/Users/jukken/rpi4_hyp_803/src/hardware/startup/boards/../../../../install/aarch64le/usr/lib\libstartup.a(init_qtime_v8gt.o)
 .bss           0x0000000000000588       0x1c C:/Users/jukken/rpi4_hyp_803/src/hardware/startup/boards/../../../../install/aarch64le/usr/lib\libstartup.a(init_smp.o)
                0x0000000000000588                syspage_available
                0x0000000000000590                smp_spin_vaddr
                0x0000000000000598                smp_prev_output_rtn
                0x00000000000005a0                cpu_starting
 *fill*         0x00000000000005a4        0x4 
 .bss           0x00000000000005a8       0x10 C:/Users/jukken/rpi4_hyp_803/src/hardware/startup/boards/../../../../install/aarch64le/usr/lib\libstartup.a(init_system_private.o)
                0x00000000000005a8                boot_vaddr_end
                0x00000000000005b0                boot_vaddr_base
 .bss           0x00000000000005b8        0x0 C:/Users/jukken/rpi4_hyp_803/src/hardware/startup/boards/../../../../install/aarch64le/usr/lib\libstartup.a(invert_timer_freq.o)
 .bss           0x00000000000005b8        0x0 C:/Users/jukken/rpi4_hyp_803/src/hardware/startup/boards/../../../../install/aarch64le/usr/lib\libstartup.a(jtag.o)
 .bss           0x00000000000005b8       0x18 C:/Users/jukken/rpi4_hyp_803/src/hardware/startup/boards/../../../../install/aarch64le/usr/lib\libstartup.a(kprintf.o)
 .bss           0x00000000000005d0        0x0 C:/Users/jukken/rpi4_hyp_803/src/hardware/startup/boards/../../../../install/aarch64le/usr/lib\libstartup.a(load_ifs.o)
 .bss           0x00000000000005d0        0x0 C:/Users/jukken/rpi4_hyp_803/src/hardware/startup/boards/../../../../install/aarch64le/usr/lib\libstartup.a(map_callout_io.o)
 .bss           0x00000000000005d0        0x0 C:/Users/jukken/rpi4_hyp_803/src/hardware/startup/boards/../../../../install/aarch64le/usr/lib\libstartup.a(map_startup_mem.o)
 .bss           0x00000000000005d0        0x0 C:/Users/jukken/rpi4_hyp_803/src/hardware/startup/boards/../../../../install/aarch64le/usr/lib\libstartup.a(memcpy.o)
 .bss           0x00000000000005d0        0x0 C:/Users/jukken/rpi4_hyp_803/src/hardware/startup/boards/../../../../install/aarch64le/usr/lib\libstartup.a(memfuncs.o)
 .bss           0x00000000000005d0        0x0 C:/Users/jukken/rpi4_hyp_803/src/hardware/startup/boards/../../../../install/aarch64le/usr/lib\libstartup.a(memmove.o)
 .bss           0x00000000000005d0        0x0 C:/Users/jukken/rpi4_hyp_803/src/hardware/startup/boards/../../../../install/aarch64le/usr/lib\libstartup.a(print_sysp.o)
 .bss           0x00000000000005d0       0x34 C:/Users/jukken/rpi4_hyp_803/src/hardware/startup/boards/../../../../install/aarch64le/usr/lib\libstartup.a(ram.o)
 *fill*         0x0000000000000604        0x4 
 .bss           0x0000000000000608       0x30 C:/Users/jukken/rpi4_hyp_803/src/hardware/startup/boards/../../../../install/aarch64le/usr/lib\libstartup.a(restore_ifs.o)
                0x0000000000000608                rifs2_info
                0x0000000000000610                ifs2_paddr_dst
                0x0000000000000618                rifs_flag
                0x0000000000000620                ifs2_paddr_src
                0x0000000000000628                ifs2_size
                0x0000000000000630                rifs_info
 .bss           0x0000000000000638        0x0 C:/Users/jukken/rpi4_hyp_803/src/hardware/startup/boards/../../../../install/aarch64le/usr/lib\libstartup.a(smp_start.o)
 .bss           0x0000000000000638        0x0 C:/Users/jukken/rpi4_hyp_803/src/hardware/startup/boards/../../../../install/aarch64le/usr/lib\libstartup.a(ssp.o)
 .bss           0x0000000000000638        0x0 C:/Users/jukken/rpi4_hyp_803/src/hardware/startup/boards/../../../../install/aarch64le/usr/lib\libstartup.a(startnext.o)
 .bss           0x0000000000000638        0x0 C:/Users/jukken/rpi4_hyp_803/src/hardware/startup/boards/../../../../install/aarch64le/usr/lib\libstartup.a(strings.o)
 .bss           0x0000000000000638        0x0 C:/Users/jukken/rpi4_hyp_803/src/hardware/startup/boards/../../../../install/aarch64le/usr/lib\libstartup.a(strtoul.o)
 .bss           0x0000000000000638      0x120 C:/Users/jukken/rpi4_hyp_803/src/hardware/startup/boards/../../../../install/aarch64le/usr/lib\libstartup.a(syspage_memory.o)
                0x0000000000000638                lsp
                0x0000000000000750                syspage_paddr
 .bss           0x0000000000000758        0x0 C:/Users/jukken/rpi4_hyp_803/src/hardware/startup/boards/../../../../install/aarch64le/usr/lib\libstartup.a(tweak_cmdline.o)
 .bss           0x0000000000000758        0x0 C:/Users/jukken/rpi4_hyp_803/src/hardware/startup/boards/../../../../install/aarch64le/usr/lib\libstartup.a(uncompress.o)
 .bss           0x0000000000000758        0x0 C:/Users/jukken/rpi4_hyp_803/src/hardware/startup/boards/../../../../install/aarch64le/usr/lib\libstartup.a(uncompress_ucl.o)
 .bss           0x0000000000000758        0x0 C:/Users/jukken/rpi4_hyp_803/src/hardware/startup/boards/../../../../install/aarch64le/usr/lib\libstartup.a(vbar_default.o)
 .bss           0x0000000000000758        0x0 C:/Users/jukken/rpi4_hyp_803/src/hardware/startup/boards/../../../../install/aarch64le/usr/lib\libstartup.a(_start_el1.o)
 .bss           0x0000000000000758        0x0 C:/Users/jukken/rpi4_hyp_803/src/hardware/startup/boards/../../../../install/aarch64le/usr/lib\libstartup.a(aarch64_cache_flush.o)
 .bss           0x0000000000000758        0x0 C:/Users/jukken/rpi4_hyp_803/src/hardware/startup/boards/../../../../install/aarch64le/usr/lib\libstartup.a(aarch64_cpuid.o)
 .bss           0x0000000000000758        0x0 C:/Users/jukken/rpi4_hyp_803/src/hardware/startup/boards/../../../../install/aarch64le/usr/lib\libstartup.a(aarch64_cpuspeed.o)
 .bss           0x0000000000000758       0x20 C:/Users/jukken/rpi4_hyp_803/src/hardware/startup/boards/../../../../install/aarch64le/usr/lib\libstartup.a(aarch64_map.o)
                0x0000000000000770                L0_vaddr
 .bss           0x0000000000000778        0x8 C:/Users/jukken/rpi4_hyp_803/src/hardware/startup/boards/../../../../install/aarch64le/usr/lib\libstartup.a(add_cache.o)
 .bss           0x0000000000000780        0x0 C:/Users/jukken/rpi4_hyp_803/src/hardware/startup/boards/../../../../install/aarch64le/usr/lib\libstartup.a(alloc_qtime.o)
 .bss           0x0000000000000780        0x0 C:/Users/jukken/rpi4_hyp_803/src/hardware/startup/boards/../../../../install/aarch64le/usr/lib\libstartup.a(ap_fail.o)
 .bss           0x0000000000000780        0x0 C:/Users/jukken/rpi4_hyp_803/src/hardware/startup/boards/../../../../install/aarch64le/usr/lib\libstartup.a(as_add.o)
 .bss           0x0000000000000780        0x0 C:/Users/jukken/rpi4_hyp_803/src/hardware/startup/boards/../../../../install/aarch64le/usr/lib\libstartup.a(as_add64.o)
 .bss           0x0000000000000780        0x0 C:/Users/jukken/rpi4_hyp_803/src/hardware/startup/boards/../../../../install/aarch64le/usr/lib\libstartup.a(as_default.o)
 .bss           0x0000000000000780        0x0 C:/Users/jukken/rpi4_hyp_803/src/hardware/startup/boards/../../../../install/aarch64le/usr/lib\libstartup.a(as_find.o)
 .bss           0x0000000000000780        0x0 C:/Users/jukken/rpi4_hyp_803/src/hardware/startup/boards/../../../../install/aarch64le/usr/lib\libstartup.a(board_sysctl.o)
 .bss           0x0000000000000780       0x20 C:/Users/jukken/rpi4_hyp_803/src/hardware/startup/boards/../../../../install/aarch64le/usr/lib\libstartup.a(boot_regs.o)
                0x0000000000000780                boot_regs
 .bss           0x00000000000007a0        0x0 C:/Users/jukken/rpi4_hyp_803/src/hardware/startup/boards/../../../../install/aarch64le/usr/lib\libstartup.a(callout_cache_armv8.o)
 .bss           0x00000000000007a0        0x0 C:/Users/jukken/rpi4_hyp_803/src/hardware/startup/boards/../../../../install/aarch64le/usr/lib\libstartup.a(callout_interrupt_gic_v2.o)
 .bss           0x00000000000007a0        0x0 C:/Users/jukken/rpi4_hyp_803/src/hardware/startup/boards/../../../../install/aarch64le/usr/lib\libstartup.a(callout_smp_spin.o)
 .bss           0x00000000000007a0        0x0 C:/Users/jukken/rpi4_hyp_803/src/hardware/startup/boards/../../../../install/aarch64le/usr/lib\libstartup.a(cpu_startnext.o)
 .bss           0x00000000000007a0        0x0 C:/Users/jukken/rpi4_hyp_803/src/hardware/startup/boards/../../../../install/aarch64le/usr/lib\libstartup.a(cpu_syspage_memory.o)
 .bss           0x00000000000007a0        0x0 C:/Users/jukken/rpi4_hyp_803/src/hardware/startup/boards/../../../../install/aarch64le/usr/lib\libstartup.a(cpuid_a35.o)
 .bss           0x00000000000007a0        0x0 C:/Users/jukken/rpi4_hyp_803/src/hardware/startup/boards/../../../../install/aarch64le/usr/lib\libstartup.a(cpuid_a53.o)
 .bss           0x00000000000007a0        0x0 C:/Users/jukken/rpi4_hyp_803/src/hardware/startup/boards/../../../../install/aarch64le/usr/lib\libstartup.a(cpuid_a55.o)
 .bss           0x00000000000007a0        0x0 C:/Users/jukken/rpi4_hyp_803/src/hardware/startup/boards/../../../../install/aarch64le/usr/lib\libstartup.a(cpuid_a57.o)
 .bss           0x00000000000007a0        0x0 C:/Users/jukken/rpi4_hyp_803/src/hardware/startup/boards/../../../../install/aarch64le/usr/lib\libstartup.a(cpuid_a72.o)
 .bss           0x00000000000007a0        0x0 C:/Users/jukken/rpi4_hyp_803/src/hardware/startup/boards/../../../../install/aarch64le/usr/lib\libstartup.a(cpuid_a720.o)
 .bss           0x00000000000007a0        0x0 C:/Users/jukken/rpi4_hyp_803/src/hardware/startup/boards/../../../../install/aarch64le/usr/lib\libstartup.a(cpuid_a75.o)
 .bss           0x00000000000007a0        0x0 C:/Users/jukken/rpi4_hyp_803/src/hardware/startup/boards/../../../../install/aarch64le/usr/lib\libstartup.a(cpuid_a76.o)
 .bss           0x00000000000007a0        0x0 C:/Users/jukken/rpi4_hyp_803/src/hardware/startup/boards/../../../../install/aarch64le/usr/lib\libstartup.a(cpuid_a78ae.o)
 .bss           0x00000000000007a0        0x0 C:/Users/jukken/rpi4_hyp_803/src/hardware/startup/boards/../../../../install/aarch64le/usr/lib\libstartup.a(cpuid_d15.o)
 .bss           0x00000000000007a0        0x0 C:/Users/jukken/rpi4_hyp_803/src/hardware/startup/boards/../../../../install/aarch64le/usr/lib\libstartup.a(cpuid_d20.o)
 .bss           0x00000000000007a0        0x0 C:/Users/jukken/rpi4_hyp_803/src/hardware/startup/boards/../../../../install/aarch64le/usr/lib\libstartup.a(cpuid_n1.o)
 .bss           0x00000000000007a0        0x0 C:/Users/jukken/rpi4_hyp_803/src/hardware/startup/boards/../../../../install/aarch64le/usr/lib\libstartup.a(cpuid_neo_v1.o)
 .bss           0x00000000000007a0        0x0 C:/Users/jukken/rpi4_hyp_803/src/hardware/startup/boards/../../../../install/aarch64le/usr/lib\libstartup.a(cpuid_neo_v2.o)
 .bss           0x00000000000007a0        0x0 C:/Users/jukken/rpi4_hyp_803/src/hardware/startup/boards/../../../../install/aarch64le/usr/lib\libstartup.a(cpuid_v8_aem.o)
 .bss           0x00000000000007a0        0x0 C:/Users/jukken/rpi4_hyp_803/src/hardware/startup/boards/../../../../install/aarch64le/usr/lib\libstartup.a(cpuid_v8_fm.o)
 .bss           0x00000000000007a0        0x0 C:/Users/jukken/rpi4_hyp_803/src/hardware/startup/boards/../../../../install/aarch64le/usr/lib\libstartup.a(cpuid_x2.o)
 .bss           0x00000000000007a0        0x0 C:/Users/jukken/rpi4_hyp_803/src/hardware/startup/boards/../../../../install/aarch64le/usr/lib\libstartup.a(cpuid_x4.o)
 .bss           0x00000000000007a0        0x0 C:/Users/jukken/rpi4_hyp_803/src/hardware/startup/boards/../../../../install/aarch64le/usr/lib\libstartup.a(cpuid_x925.o)
 .bss           0x00000000000007a0        0x0 C:/Users/jukken/rpi4_hyp_803/src/hardware/startup/boards/../../../../install/aarch64le/usr/lib\libstartup.a(crash_done.o)
 .bss           0x00000000000007a0        0x0 C:/Users/jukken/rpi4_hyp_803/src/hardware/startup/boards/../../../../install/aarch64le/usr/lib\libstartup.a(dummy_print_char.o)
 .bss           0x00000000000007a0        0x0 C:/Users/jukken/rpi4_hyp_803/src/hardware/startup/boards/../../../../install/aarch64le/usr/lib\libstartup.a(elf.o)
 .bss           0x00000000000007a0        0x0 C:/Users/jukken/rpi4_hyp_803/src/hardware/startup/boards/../../../../install/aarch64le/usr/lib\libstartup.a(elf32.o)
 .bss           0x00000000000007a0        0x0 C:/Users/jukken/rpi4_hyp_803/src/hardware/startup/boards/../../../../install/aarch64le/usr/lib\libstartup.a(elf64.o)
 .bss           0x00000000000007a0        0x0 C:/Users/jukken/rpi4_hyp_803/src/hardware/startup/boards/../../../../install/aarch64le/usr/lib\libstartup.a(elf_map.o)
 .bss           0x00000000000007a0        0x0 C:/Users/jukken/rpi4_hyp_803/src/hardware/startup/boards/../../../../install/aarch64le/usr/lib\libstartup.a(hwi_add_device.o)
 .bss           0x00000000000007a0        0x0 C:/Users/jukken/rpi4_hyp_803/src/hardware/startup/boards/../../../../install/aarch64le/usr/lib\libstartup.a(hwi_default.o)
 .bss           0x00000000000007a0        0x8 C:/Users/jukken/rpi4_hyp_803/src/hardware/startup/boards/../../../../install/aarch64le/usr/lib\libstartup.a(hypervisor.o)
 .bss           0x00000000000007a8        0x0 C:/Users/jukken/rpi4_hyp_803/src/hardware/startup/boards/../../../../install/aarch64le/usr/lib\libstartup.a(hypervisor_enable.o)
 .bss           0x00000000000007a8        0x0 C:/Users/jukken/rpi4_hyp_803/src/hardware/startup/boards/../../../../install/aarch64le/usr/lib\libstartup.a(init_mitigation_mem.o)
 .bss           0x00000000000007a8        0x0 C:/Users/jukken/rpi4_hyp_803/src/hardware/startup/boards/../../../../install/aarch64le/usr/lib\libstartup.a(rtc_time.o)
 .bss           0x00000000000007a8        0x0 C:/Users/jukken/rpi4_hyp_803/src/hardware/startup/boards/../../../../install/aarch64le/usr/lib\libstartup.a(startup_info.o)
 .bss           0x00000000000007a8        0x0 C:/Users/jukken/rpi4_hyp_803/src/hardware/startup/boards/../../../../install/aarch64le/usr/lib\libstartup.a(vstart.o)
 .bss           0x00000000000007a8        0x0 C:/Users/jukken/qnx803/target/qnx/aarch64le/usr/lib\libucl.a(n2b_d.o)
 .bss           0x00000000000007a8        0x0 C:/Users/jukken/qnx803/target/qnx/aarch64le/usr/lib\libdrvr.a(hwi_find_unit.o)
 .bss           0x00000000000007a8        0x0 C:/Users/jukken/qnx803/target/qnx/aarch64le/usr/lib\libdrvr.a(hwi_tag_find.o)
 .bss           0x00000000000007a8        0x0 C:/Users/jukken/qnx803/target/qnx/aarch64le/usr/lib\libdrvr.a(hwi_find_bus.o)
 .bss           0x00000000000007a8        0x0 C:/Users/jukken/qnx803/target/qnx/aarch64le/usr/lib\libdrvr.a(hwi_find_device.o)
 .bss           0x00000000000007a8        0x0 C:/Users/jukken/qnx803/target/qnx/aarch64le/usr/lib\libdrvr.a(hwi_find.o)
 .bss           0x00000000000007a8        0x0 C:/Users/jukken/qnx803/target/qnx/aarch64le/usr/lib\libfdt.a(fdt.o)
 .bss           0x00000000000007a8        0x0 C:/Users/jukken/qnx803/target/qnx/aarch64le/usr/lib\libfdt.a(fdt_ro.o)
 .bss           0x00000000000007a8        0x0 C:/Users/jukken/qnx803/target/qnx/aarch64le/lib\libc.a(hwi_find_item.o)
 .bss           0x00000000000007a8        0x0 C:/Users/jukken/qnx803/target/qnx/aarch64le/lib\libc.a(hwi_next_tag.o)
 .bss           0x00000000000007a8        0x0 C:/Users/jukken/qnx803/target/qnx/aarch64le/lib\libc.a(hwi_off2tag.o)
 .bss           0x00000000000007a8        0x0 C:/Users/jukken/qnx803/target/qnx/aarch64le/lib\libc.a(hwi_tag2off.o)
 .bss           0x00000000000007a8        0x0 C:/Users/jukken/qnx803/target/qnx/aarch64le/lib\libc.a(memchr.o)
 .bss           0x00000000000007a8        0x0 C:/Users/jukken/qnx803/target/qnx/aarch64le/lib\libc.a(memcmp.o)
 .bss           0x00000000000007a8        0x0 C:/Users/jukken/qnx803/target/qnx/aarch64le/lib\libc.a(memset.o)
 .bss           0x00000000000007a8        0x0 C:/Users/jukken/qnx803/target/qnx/aarch64le/lib\libc.a(strchr.o)
 .bss           0x00000000000007a8        0x0 C:/Users/jukken/qnx803/target/qnx/aarch64le/lib\libc.a(strcmp.o)
 .bss           0x00000000000007a8        0x0 C:/Users/jukken/qnx803/target/qnx/aarch64le/lib\libc.a(strlcpy.o)
 .bss           0x00000000000007a8        0x0 C:/Users/jukken/qnx803/target/qnx/aarch64le/lib\libc.a(strlen.o)
 .bss           0x00000000000007a8        0x0 C:/Users/jukken/qnx803/target/qnx/aarch64le/lib\libc.a(strnlen.o)
 .bss           0x00000000000007a8        0x0 C:/Users/jukken/qnx803/target/qnx/aarch64le/lib\libc.a(strrchr.o)
 .bss           0x00000000000007a8        0x0 C:/Users/jukken/qnx803/target/qnx/aarch64le/lib\libc.a(strtol.o)
 .bss           0x00000000000007a8        0x8 C:/Users/jukken/qnx803/target/qnx/aarch64le/lib\libc.a(__progname.o)
                0x00000000000007a8                __progname
 .bss           0x00000000000007b0        0x0 C:/Users/jukken/qnx803/target/qnx/aarch64le/lib\libc.a(_ssp.o)
 .bss           0x00000000000007b0        0x8 C:/Users/jukken/qnx803/target/qnx/aarch64le/lib\libc.a(__stack_chk_guard.o)
                0x00000000000007b0                __stack_chk_guard
 .bss           0x00000000000007b8        0x0 C:/Users/jukken/qnx803/target/qnx/aarch64le/lib\libc.a(getsubopt.o)
 .bss           0x00000000000007b8        0x0 C:/Users/jukken/qnx803/target/qnx/aarch64le/lib\libc.a(xstoint.o)
 .bss           0x00000000000007b8        0x0 C:/Users/jukken/qnx803/target/qnx/aarch64le/lib\libc.a(strncmp.o)
 .bss           0x00000000000007b8        0x8 C:/Users/jukken/qnx803/target/qnx/aarch64le/lib\libc.a(xctype.o)
                0x00000000000007b8                _Tls_setup__Ctype

.stab
 *(.stab)

.stabstr
 *(.stabstr)

.stab.excl
 *(.stab.excl)

.stab.exclstr
 *(.stab.exclstr)

.stab.index
 *(.stab.index)

.stab.indexstr
 *(.stab.indexstr)

.comment        0x0000000000000000     0x270a
 *(.comment)
 .comment       0x0000000000000000       0x46 bcm2711_init_board.o
 .comment       0x0000000000000046       0x46 bcm2711_init_raminfo.o
 .comment       0x000000000000008c       0x46 board_smp.o
 .comment       0x00000000000000d2       0x46 hw_ser_miniuart.o
 .comment       0x0000000000000118       0x46 init_asinfo.o
 .comment       0x000000000000015e       0x46 init_board_type.o
 .comment       0x00000000000001a4       0x46 init_hwinfo.o
 .comment       0x00000000000001ea       0x46 init_intrinfo.o
 .comment       0x0000000000000230       0x46 init_wdt.o
 .comment       0x0000000000000276       0x46 main.o
 .comment       0x00000000000002bc       0x46 mbox.o
 .comment       0x0000000000000302       0x46 rpi4_board_config.o
 .comment       0x0000000000000348       0x46 C:/Users/jukken/rpi4_hyp_803/src/hardware/startup/boards/../../../../install/aarch64le/usr/lib\libstartup.a(_main.o)
 .comment       0x000000000000038e       0x46 C:/Users/jukken/rpi4_hyp_803/src/hardware/startup/boards/../../../../install/aarch64le/usr/lib\libstartup.a(add_interrupt.o)
 .comment       0x00000000000003d4       0x46 C:/Users/jukken/rpi4_hyp_803/src/hardware/startup/boards/../../../../install/aarch64le/usr/lib\libstartup.a(as_add_containing.o)
 .comment       0x000000000000041a       0x46 C:/Users/jukken/rpi4_hyp_803/src/hardware/startup/boards/../../../../install/aarch64le/usr/lib\libstartup.a(as_find_containing.o)
 .comment       0x0000000000000460       0x46 C:/Users/jukken/rpi4_hyp_803/src/hardware/startup/boards/../../../../install/aarch64le/usr/lib\libstartup.a(as_off2info.o)
 .comment       0x00000000000004a6       0x46 C:/Users/jukken/rpi4_hyp_803/src/hardware/startup/boards/../../../../install/aarch64le/usr/lib\libstartup.a(board_init.o)
 .comment       0x00000000000004ec       0x46 C:/Users/jukken/rpi4_hyp_803/src/hardware/startup/boards/../../../../install/aarch64le/usr/lib\libstartup.a(bootstrap_cmdline.o)
 .comment       0x0000000000000532       0x46 C:/Users/jukken/rpi4_hyp_803/src/hardware/startup/boards/../../../../install/aarch64le/usr/lib\libstartup.a(callouts.o)
 .comment       0x0000000000000578       0x46 C:/Users/jukken/rpi4_hyp_803/src/hardware/startup/boards/../../../../install/aarch64le/usr/lib\libstartup.a(common_options.o)
 .comment       0x00000000000005be       0x46 C:/Users/jukken/rpi4_hyp_803/src/hardware/startup/boards/../../../../install/aarch64le/usr/lib\libstartup.a(cpu_cluster_add.o)
 .comment       0x0000000000000604       0x46 C:/Users/jukken/rpi4_hyp_803/src/hardware/startup/boards/../../../../install/aarch64le/usr/lib\libstartup.a(cpu_common_options.o)
 .comment       0x000000000000064a       0x46 C:/Users/jukken/rpi4_hyp_803/src/hardware/startup/boards/../../../../install/aarch64le/usr/lib\libstartup.a(cpu_startup.o)
 .comment       0x0000000000000690       0x46 C:/Users/jukken/rpi4_hyp_803/src/hardware/startup/boards/../../../../install/aarch64le/usr/lib\libstartup.a(debug.o)
 .comment       0x00000000000006d6       0x46 C:/Users/jukken/rpi4_hyp_803/src/hardware/startup/boards/../../../../install/aarch64le/usr/lib\libstartup.a(fdt_init_bootopt.o)
 .comment       0x000000000000071c       0x46 C:/Users/jukken/rpi4_hyp_803/src/hardware/startup/boards/../../../../install/aarch64le/usr/lib\libstartup.a(fdt_vars.o)
 .comment       0x0000000000000762       0x46 C:/Users/jukken/rpi4_hyp_803/src/hardware/startup/boards/../../../../install/aarch64le/usr/lib\libstartup.a(getopt.o)
 .comment       0x00000000000007a8       0x46 C:/Users/jukken/rpi4_hyp_803/src/hardware/startup/boards/../../../../install/aarch64le/usr/lib\libstartup.a(getsize.o)
 .comment       0x00000000000007ee       0x46 C:/Users/jukken/rpi4_hyp_803/src/hardware/startup/boards/../../../../install/aarch64le/usr/lib\libstartup.a(gic.o)
 .comment       0x0000000000000834       0x46 C:/Users/jukken/rpi4_hyp_803/src/hardware/startup/boards/../../../../install/aarch64le/usr/lib\libstartup.a(gic_v2.o)
 .comment       0x000000000000087a       0x46 C:/Users/jukken/rpi4_hyp_803/src/hardware/startup/boards/../../../../install/aarch64le/usr/lib\libstartup.a(hw_serpl011.o)
 .comment       0x00000000000008c0       0x46 C:/Users/jukken/rpi4_hyp_803/src/hardware/startup/boards/../../../../install/aarch64le/usr/lib\libstartup.a(hwi_add_nanospin.o)
 .comment       0x0000000000000906       0x46 C:/Users/jukken/rpi4_hyp_803/src/hardware/startup/boards/../../../../install/aarch64le/usr/lib\libstartup.a(hwi_alloc.o)
 .comment       0x000000000000094c       0x46 C:/Users/jukken/rpi4_hyp_803/src/hardware/startup/boards/../../../../install/aarch64le/usr/lib\libstartup.a(hwi_find_as.o)
 .comment       0x0000000000000992       0x46 C:/Users/jukken/rpi4_hyp_803/src/hardware/startup/boards/../../../../install/aarch64le/usr/lib\libstartup.a(hwidev_add.o)
 .comment       0x00000000000009d8       0x46 C:/Users/jukken/rpi4_hyp_803/src/hardware/startup/boards/../../../../install/aarch64le/usr/lib\libstartup.a(hwidev_add_dma.o)
 .comment       0x0000000000000a1e       0x46 C:/Users/jukken/rpi4_hyp_803/src/hardware/startup/boards/../../../../install/aarch64le/usr/lib\libstartup.a(hwidev_add_enet.o)
 .comment       0x0000000000000a64       0x46 C:/Users/jukken/rpi4_hyp_803/src/hardware/startup/boards/../../../../install/aarch64le/usr/lib\libstartup.a(hwidev_add_timer.o)
 .comment       0x0000000000000aaa       0x46 C:/Users/jukken/rpi4_hyp_803/src/hardware/startup/boards/../../../../install/aarch64le/usr/lib\libstartup.a(hwitag_add_common.o)
 .comment       0x0000000000000af0       0x46 C:/Users/jukken/rpi4_hyp_803/src/hardware/startup/boards/../../../../install/aarch64le/usr/lib\libstartup.a(hwitag_add_inputclk.o)
 .comment       0x0000000000000b36       0x46 C:/Users/jukken/rpi4_hyp_803/src/hardware/startup/boards/../../../../install/aarch64le/usr/lib\libstartup.a(hwitag_add_irq.o)
 .comment       0x0000000000000b7c       0x46 C:/Users/jukken/rpi4_hyp_803/src/hardware/startup/boards/../../../../install/aarch64le/usr/lib\libstartup.a(hwitag_add_location.o)
 .comment       0x0000000000000bc2       0x46 C:/Users/jukken/rpi4_hyp_803/src/hardware/startup/boards/../../../../install/aarch64le/usr/lib\libstartup.a(hwitag_add_nicaddr.o)
 .comment       0x0000000000000c08       0x46 C:/Users/jukken/rpi4_hyp_803/src/hardware/startup/boards/../../../../install/aarch64le/usr/lib\libstartup.a(hwitag_add_nicphyaddr.o)
 .comment       0x0000000000000c4e       0x46 C:/Users/jukken/rpi4_hyp_803/src/hardware/startup/boards/../../../../install/aarch64le/usr/lib\libstartup.a(hwitag_add_regname.o)
 .comment       0x0000000000000c94       0x46 C:/Users/jukken/rpi4_hyp_803/src/hardware/startup/boards/../../../../install/aarch64le/usr/lib\libstartup.a(hwitag_set_inputclk.o)
 .comment       0x0000000000000cda       0x46 C:/Users/jukken/rpi4_hyp_803/src/hardware/startup/boards/../../../../install/aarch64le/usr/lib\libstartup.a(hwitag_set_ivec.o)
 .comment       0x0000000000000d20       0x46 C:/Users/jukken/rpi4_hyp_803/src/hardware/startup/boards/../../../../install/aarch64le/usr/lib\libstartup.a(hypervisor_setup.o)
 .comment       0x0000000000000d66       0x46 C:/Users/jukken/rpi4_hyp_803/src/hardware/startup/boards/../../../../install/aarch64le/usr/lib\libstartup.a(init_cacheattr.o)
 .comment       0x0000000000000dac       0x46 C:/Users/jukken/rpi4_hyp_803/src/hardware/startup/boards/../../../../install/aarch64le/usr/lib\libstartup.a(init_cpuinfo.o)
 .comment       0x0000000000000df2       0x46 C:/Users/jukken/rpi4_hyp_803/src/hardware/startup/boards/../../../../install/aarch64le/usr/lib\libstartup.a(init_mmu.o)
 .comment       0x0000000000000e38       0x46 C:/Users/jukken/rpi4_hyp_803/src/hardware/startup/boards/../../../../install/aarch64le/usr/lib\libstartup.a(init_qtime.o)
 .comment       0x0000000000000e7e       0x46 C:/Users/jukken/rpi4_hyp_803/src/hardware/startup/boards/../../../../install/aarch64le/usr/lib\libstartup.a(init_qtime_v8gt.o)
 .comment       0x0000000000000ec4       0x46 C:/Users/jukken/rpi4_hyp_803/src/hardware/startup/boards/../../../../install/aarch64le/usr/lib\libstartup.a(init_smp.o)
 .comment       0x0000000000000f0a       0x46 C:/Users/jukken/rpi4_hyp_803/src/hardware/startup/boards/../../../../install/aarch64le/usr/lib\libstartup.a(init_system_private.o)
 .comment       0x0000000000000f50       0x46 C:/Users/jukken/rpi4_hyp_803/src/hardware/startup/boards/../../../../install/aarch64le/usr/lib\libstartup.a(invert_timer_freq.o)
 .comment       0x0000000000000f96       0x46 C:/Users/jukken/rpi4_hyp_803/src/hardware/startup/boards/../../../../install/aarch64le/usr/lib\libstartup.a(jtag.o)
 .comment       0x0000000000000fdc       0x46 C:/Users/jukken/rpi4_hyp_803/src/hardware/startup/boards/../../../../install/aarch64le/usr/lib\libstartup.a(kprintf.o)
 .comment       0x0000000000001022       0x46 C:/Users/jukken/rpi4_hyp_803/src/hardware/startup/boards/../../../../install/aarch64le/usr/lib\libstartup.a(load_ifs.o)
 .comment       0x0000000000001068       0x46 C:/Users/jukken/rpi4_hyp_803/src/hardware/startup/boards/../../../../install/aarch64le/usr/lib\libstartup.a(map_callout_io.o)
 .comment       0x00000000000010ae       0x46 C:/Users/jukken/rpi4_hyp_803/src/hardware/startup/boards/../../../../install/aarch64le/usr/lib\libstartup.a(map_startup_mem.o)
 .comment       0x00000000000010f4       0x46 C:/Users/jukken/rpi4_hyp_803/src/hardware/startup/boards/../../../../install/aarch64le/usr/lib\libstartup.a(memcpy.o)
 .comment       0x000000000000113a       0x46 C:/Users/jukken/rpi4_hyp_803/src/hardware/startup/boards/../../../../install/aarch64le/usr/lib\libstartup.a(memfuncs.o)
 .comment       0x0000000000001180       0x46 C:/Users/jukken/rpi4_hyp_803/src/hardware/startup/boards/../../../../install/aarch64le/usr/lib\libstartup.a(memmove.o)
 .comment       0x00000000000011c6       0x46 C:/Users/jukken/rpi4_hyp_803/src/hardware/startup/boards/../../../../install/aarch64le/usr/lib\libstartup.a(print_sysp.o)
 .comment       0x000000000000120c       0x46 C:/Users/jukken/rpi4_hyp_803/src/hardware/startup/boards/../../../../install/aarch64le/usr/lib\libstartup.a(ram.o)
 .comment       0x0000000000001252       0x46 C:/Users/jukken/rpi4_hyp_803/src/hardware/startup/boards/../../../../install/aarch64le/usr/lib\libstartup.a(restore_ifs.o)
 .comment       0x0000000000001298       0x46 C:/Users/jukken/rpi4_hyp_803/src/hardware/startup/boards/../../../../install/aarch64le/usr/lib\libstartup.a(ssp.o)
 .comment       0x00000000000012de       0x46 C:/Users/jukken/rpi4_hyp_803/src/hardware/startup/boards/../../../../install/aarch64le/usr/lib\libstartup.a(startnext.o)
 .comment       0x0000000000001324       0x46 C:/Users/jukken/rpi4_hyp_803/src/hardware/startup/boards/../../../../install/aarch64le/usr/lib\libstartup.a(strings.o)
 .comment       0x000000000000136a       0x46 C:/Users/jukken/rpi4_hyp_803/src/hardware/startup/boards/../../../../install/aarch64le/usr/lib\libstartup.a(strtoul.o)
 .comment       0x00000000000013b0       0x46 C:/Users/jukken/rpi4_hyp_803/src/hardware/startup/boards/../../../../install/aarch64le/usr/lib\libstartup.a(syspage_memory.o)
 .comment       0x00000000000013f6       0x46 C:/Users/jukken/rpi4_hyp_803/src/hardware/startup/boards/../../../../install/aarch64le/usr/lib\libstartup.a(tweak_cmdline.o)
 .comment       0x000000000000143c       0x46 C:/Users/jukken/rpi4_hyp_803/src/hardware/startup/boards/../../../../install/aarch64le/usr/lib\libstartup.a(uncompress.o)
 .comment       0x0000000000001482       0x46 C:/Users/jukken/rpi4_hyp_803/src/hardware/startup/boards/../../../../install/aarch64le/usr/lib\libstartup.a(uncompress_ucl.o)
 .comment       0x00000000000014c8       0x46 C:/Users/jukken/rpi4_hyp_803/src/hardware/startup/boards/../../../../install/aarch64le/usr/lib\libstartup.a(aarch64_cpuid.o)
 .comment       0x000000000000150e       0x46 C:/Users/jukken/rpi4_hyp_803/src/hardware/startup/boards/../../../../install/aarch64le/usr/lib\libstartup.a(aarch64_cpuspeed.o)
 .comment       0x0000000000001554       0x46 C:/Users/jukken/rpi4_hyp_803/src/hardware/startup/boards/../../../../install/aarch64le/usr/lib\libstartup.a(aarch64_map.o)
 .comment       0x000000000000159a       0x46 C:/Users/jukken/rpi4_hyp_803/src/hardware/startup/boards/../../../../install/aarch64le/usr/lib\libstartup.a(add_cache.o)
 .comment       0x00000000000015e0       0x46 C:/Users/jukken/rpi4_hyp_803/src/hardware/startup/boards/../../../../install/aarch64le/usr/lib\libstartup.a(alloc_qtime.o)
 .comment       0x0000000000001626       0x46 C:/Users/jukken/rpi4_hyp_803/src/hardware/startup/boards/../../../../install/aarch64le/usr/lib\libstartup.a(ap_fail.o)
 .comment       0x000000000000166c       0x46 C:/Users/jukken/rpi4_hyp_803/src/hardware/startup/boards/../../../../install/aarch64le/usr/lib\libstartup.a(as_add.o)
 .comment       0x00000000000016b2       0x46 C:/Users/jukken/rpi4_hyp_803/src/hardware/startup/boards/../../../../install/aarch64le/usr/lib\libstartup.a(as_add64.o)
 .comment       0x00000000000016f8       0x46 C:/Users/jukken/rpi4_hyp_803/src/hardware/startup/boards/../../../../install/aarch64le/usr/lib\libstartup.a(as_default.o)
 .comment       0x000000000000173e       0x46 C:/Users/jukken/rpi4_hyp_803/src/hardware/startup/boards/../../../../install/aarch64le/usr/lib\libstartup.a(as_find.o)
 .comment       0x0000000000001784       0x46 C:/Users/jukken/rpi4_hyp_803/src/hardware/startup/boards/../../../../install/aarch64le/usr/lib\libstartup.a(board_sysctl.o)
 .comment       0x00000000000017ca       0x46 C:/Users/jukken/rpi4_hyp_803/src/hardware/startup/boards/../../../../install/aarch64le/usr/lib\libstartup.a(boot_regs.o)
 .comment       0x0000000000001810       0x46 C:/Users/jukken/rpi4_hyp_803/src/hardware/startup/boards/../../../../install/aarch64le/usr/lib\libstartup.a(cpu_startnext.o)
 .comment       0x0000000000001856       0x46 C:/Users/jukken/rpi4_hyp_803/src/hardware/startup/boards/../../../../install/aarch64le/usr/lib\libstartup.a(cpu_syspage_memory.o)
 .comment       0x000000000000189c       0x46 C:/Users/jukken/rpi4_hyp_803/src/hardware/startup/boards/../../../../install/aarch64le/usr/lib\libstartup.a(cpuid_a35.o)
 .comment       0x00000000000018e2       0x46 C:/Users/jukken/rpi4_hyp_803/src/hardware/startup/boards/../../../../install/aarch64le/usr/lib\libstartup.a(cpuid_a53.o)
 .comment       0x0000000000001928       0x46 C:/Users/jukken/rpi4_hyp_803/src/hardware/startup/boards/../../../../install/aarch64le/usr/lib\libstartup.a(cpuid_a55.o)
 .comment       0x000000000000196e       0x46 C:/Users/jukken/rpi4_hyp_803/src/hardware/startup/boards/../../../../install/aarch64le/usr/lib\libstartup.a(cpuid_a57.o)
 .comment       0x00000000000019b4       0x46 C:/Users/jukken/rpi4_hyp_803/src/hardware/startup/boards/../../../../install/aarch64le/usr/lib\libstartup.a(cpuid_a72.o)
 .comment       0x00000000000019fa       0x46 C:/Users/jukken/rpi4_hyp_803/src/hardware/startup/boards/../../../../install/aarch64le/usr/lib\libstartup.a(cpuid_a720.o)
 .comment       0x0000000000001a40       0x46 C:/Users/jukken/rpi4_hyp_803/src/hardware/startup/boards/../../../../install/aarch64le/usr/lib\libstartup.a(cpuid_a75.o)
 .comment       0x0000000000001a86       0x46 C:/Users/jukken/rpi4_hyp_803/src/hardware/startup/boards/../../../../install/aarch64le/usr/lib\libstartup.a(cpuid_a76.o)
 .comment       0x0000000000001acc       0x46 C:/Users/jukken/rpi4_hyp_803/src/hardware/startup/boards/../../../../install/aarch64le/usr/lib\libstartup.a(cpuid_a78ae.o)
 .comment       0x0000000000001b12       0x46 C:/Users/jukken/rpi4_hyp_803/src/hardware/startup/boards/../../../../install/aarch64le/usr/lib\libstartup.a(cpuid_d15.o)
 .comment       0x0000000000001b58       0x46 C:/Users/jukken/rpi4_hyp_803/src/hardware/startup/boards/../../../../install/aarch64le/usr/lib\libstartup.a(cpuid_d20.o)
 .comment       0x0000000000001b9e       0x46 C:/Users/jukken/rpi4_hyp_803/src/hardware/startup/boards/../../../../install/aarch64le/usr/lib\libstartup.a(cpuid_n1.o)
 .comment       0x0000000000001be4       0x46 C:/Users/jukken/rpi4_hyp_803/src/hardware/startup/boards/../../../../install/aarch64le/usr/lib\libstartup.a(cpuid_neo_v1.o)
 .comment       0x0000000000001c2a       0x46 C:/Users/jukken/rpi4_hyp_803/src/hardware/startup/boards/../../../../install/aarch64le/usr/lib\libstartup.a(cpuid_neo_v2.o)
 .comment       0x0000000000001c70       0x46 C:/Users/jukken/rpi4_hyp_803/src/hardware/startup/boards/../../../../install/aarch64le/usr/lib\libstartup.a(cpuid_v8_aem.o)
 .comment       0x0000000000001cb6       0x46 C:/Users/jukken/rpi4_hyp_803/src/hardware/startup/boards/../../../../install/aarch64le/usr/lib\libstartup.a(cpuid_v8_fm.o)
 .comment       0x0000000000001cfc       0x46 C:/Users/jukken/rpi4_hyp_803/src/hardware/startup/boards/../../../../install/aarch64le/usr/lib\libstartup.a(cpuid_x2.o)
 .comment       0x0000000000001d42       0x46 C:/Users/jukken/rpi4_hyp_803/src/hardware/startup/boards/../../../../install/aarch64le/usr/lib\libstartup.a(cpuid_x4.o)
 .comment       0x0000000000001d88       0x46 C:/Users/jukken/rpi4_hyp_803/src/hardware/startup/boards/../../../../install/aarch64le/usr/lib\libstartup.a(cpuid_x925.o)
 .comment       0x0000000000001dce       0x46 C:/Users/jukken/rpi4_hyp_803/src/hardware/startup/boards/../../../../install/aarch64le/usr/lib\libstartup.a(crash_done.o)
 .comment       0x0000000000001e14       0x46 C:/Users/jukken/rpi4_hyp_803/src/hardware/startup/boards/../../../../install/aarch64le/usr/lib\libstartup.a(dummy_print_char.o)
 .comment       0x0000000000001e5a       0x46 C:/Users/jukken/rpi4_hyp_803/src/hardware/startup/boards/../../../../install/aarch64le/usr/lib\libstartup.a(elf.o)
 .comment       0x0000000000001ea0       0x46 C:/Users/jukken/rpi4_hyp_803/src/hardware/startup/boards/../../../../install/aarch64le/usr/lib\libstartup.a(elf32.o)
 .comment       0x0000000000001ee6       0x46 C:/Users/jukken/rpi4_hyp_803/src/hardware/startup/boards/../../../../install/aarch64le/usr/lib\libstartup.a(elf64.o)
 .comment       0x0000000000001f2c       0x46 C:/Users/jukken/rpi4_hyp_803/src/hardware/startup/boards/../../../../install/aarch64le/usr/lib\libstartup.a(elf_map.o)
 .comment       0x0000000000001f72       0x46 C:/Users/jukken/rpi4_hyp_803/src/hardware/startup/boards/../../../../install/aarch64le/usr/lib\libstartup.a(hwi_add_device.o)
 .comment       0x0000000000001fb8       0x46 C:/Users/jukken/rpi4_hyp_803/src/hardware/startup/boards/../../../../install/aarch64le/usr/lib\libstartup.a(hwi_default.o)
 .comment       0x0000000000001ffe       0x46 C:/Users/jukken/rpi4_hyp_803/src/hardware/startup/boards/../../../../install/aarch64le/usr/lib\libstartup.a(hypervisor.o)
 .comment       0x0000000000002044       0x46 C:/Users/jukken/rpi4_hyp_803/src/hardware/startup/boards/../../../../install/aarch64le/usr/lib\libstartup.a(init_mitigation_mem.o)
 .comment       0x000000000000208a       0x46 C:/Users/jukken/rpi4_hyp_803/src/hardware/startup/boards/../../../../install/aarch64le/usr/lib\libstartup.a(rtc_time.o)
 .comment       0x00000000000020d0       0x46 C:/Users/jukken/rpi4_hyp_803/src/hardware/startup/boards/../../../../install/aarch64le/usr/lib\libstartup.a(startup_info.o)
 .comment       0x0000000000002116       0x21 C:/Users/jukken/qnx803/target/qnx/aarch64le/usr/lib\libucl.a(n2b_d.o)
 .comment       0x0000000000002137       0x21 C:/Users/jukken/qnx803/target/qnx/aarch64le/usr/lib\libdrvr.a(hwi_find_unit.o)
 .comment       0x0000000000002158       0x21 C:/Users/jukken/qnx803/target/qnx/aarch64le/usr/lib\libdrvr.a(hwi_tag_find.o)
 .comment       0x0000000000002179       0x21 C:/Users/jukken/qnx803/target/qnx/aarch64le/usr/lib\libdrvr.a(hwi_find_bus.o)
 .comment       0x000000000000219a       0x21 C:/Users/jukken/qnx803/target/qnx/aarch64le/usr/lib\libdrvr.a(hwi_find_device.o)
 .comment       0x00000000000021bb       0x21 C:/Users/jukken/qnx803/target/qnx/aarch64le/usr/lib\libdrvr.a(hwi_find.o)
 .comment       0x00000000000021dc       0x21 C:/Users/jukken/qnx803/target/qnx/aarch64le/usr/lib\libfdt.a(fdt.o)
 .comment       0x00000000000021fd       0x21 C:/Users/jukken/qnx803/target/qnx/aarch64le/usr/lib\libfdt.a(fdt_ro.o)
 .comment       0x000000000000221e       0x46 C:/Users/jukken/qnx803/target/qnx/aarch64le/lib\libc.a(hwi_find_item.o)
 .comment       0x0000000000002264       0x46 C:/Users/jukken/qnx803/target/qnx/aarch64le/lib\libc.a(hwi_next_tag.o)
 .comment       0x00000000000022aa       0x46 C:/Users/jukken/qnx803/target/qnx/aarch64le/lib\libc.a(hwi_off2tag.o)
 .comment       0x00000000000022f0       0x46 C:/Users/jukken/qnx803/target/qnx/aarch64le/lib\libc.a(hwi_tag2off.o)
 .comment       0x0000000000002336       0x46 C:/Users/jukken/qnx803/target/qnx/aarch64le/lib\libc.a(memchr.o)
 .comment       0x000000000000237c       0x46 C:/Users/jukken/qnx803/target/qnx/aarch64le/lib\libc.a(memset.o)
 .comment       0x00000000000023c2       0x46 C:/Users/jukken/qnx803/target/qnx/aarch64le/lib\libc.a(strchr.o)
 .comment       0x0000000000002408       0x46 C:/Users/jukken/qnx803/target/qnx/aarch64le/lib\libc.a(strlcpy.o)
 .comment       0x000000000000244e       0x46 C:/Users/jukken/qnx803/target/qnx/aarch64le/lib\libc.a(strnlen.o)
 .comment       0x0000000000002494       0x46 C:/Users/jukken/qnx803/target/qnx/aarch64le/lib\libc.a(strrchr.o)
 .comment       0x00000000000024da       0x46 C:/Users/jukken/qnx803/target/qnx/aarch64le/lib\libc.a(strtol.o)
 .comment       0x0000000000002520       0x46 C:/Users/jukken/qnx803/target/qnx/aarch64le/lib\libc.a(__progname.o)
 .comment       0x0000000000002566       0x46 C:/Users/jukken/qnx803/target/qnx/aarch64le/lib\libc.a(_ssp.o)
 .comment       0x00000000000025ac       0x46 C:/Users/jukken/qnx803/target/qnx/aarch64le/lib\libc.a(__stack_chk_guard.o)
 .comment       0x00000000000025f2       0x46 C:/Users/jukken/qnx803/target/qnx/aarch64le/lib\libc.a(getsubopt.o)
 .comment       0x0000000000002638       0x46 C:/Users/jukken/qnx803/target/qnx/aarch64le/lib\libc.a(xstoint.o)
 .comment       0x000000000000267e       0x46 C:/Users/jukken/qnx803/target/qnx/aarch64le/lib\libc.a(strncmp.o)
 .comment       0x00000000000026c4       0x46 C:/Users/jukken/qnx803/target/qnx/aarch64le/lib\libc.a(xctype.o)

.note.GNU-stack
                0x0000000000000000        0x0
 .note.GNU-stack
                0x0000000000000000        0x0 bcm2711_init_board.o
 .note.GNU-stack
                0x0000000000000000        0x0 bcm2711_init_raminfo.o
 .note.GNU-stack
                0x0000000000000000        0x0 board_smp.o
 .note.GNU-stack
                0x0000000000000000        0x0 hw_ser_miniuart.o
 .note.GNU-stack
                0x0000000000000000        0x0 init_asinfo.o
 .note.GNU-stack
                0x0000000000000000        0x0 init_board_type.o
 .note.GNU-stack
                0x0000000000000000        0x0 init_hwinfo.o
 .note.GNU-stack
                0x0000000000000000        0x0 init_intrinfo.o
 .note.GNU-stack
                0x0000000000000000        0x0 init_wdt.o
 .note.GNU-stack
                0x0000000000000000        0x0 main.o
 .note.GNU-stack
                0x0000000000000000        0x0 mbox.o
 .note.GNU-stack
                0x0000000000000000        0x0 rpi4_board_config.o
 .note.GNU-stack
                0x0000000000000000        0x0 C:/Users/jukken/rpi4_hyp_803/src/hardware/startup/boards/../../../../install/aarch64le/usr/lib\libstartup.a(_main.o)
 .note.GNU-stack
                0x0000000000000000        0x0 C:/Users/jukken/rpi4_hyp_803/src/hardware/startup/boards/../../../../install/aarch64le/usr/lib\libstartup.a(add_interrupt.o)
 .note.GNU-stack
                0x0000000000000000        0x0 C:/Users/jukken/rpi4_hyp_803/src/hardware/startup/boards/../../../../install/aarch64le/usr/lib\libstartup.a(as_add_containing.o)
 .note.GNU-stack
                0x0000000000000000        0x0 C:/Users/jukken/rpi4_hyp_803/src/hardware/startup/boards/../../../../install/aarch64le/usr/lib\libstartup.a(as_find_containing.o)
 .note.GNU-stack
                0x0000000000000000        0x0 C:/Users/jukken/rpi4_hyp_803/src/hardware/startup/boards/../../../../install/aarch64le/usr/lib\libstartup.a(as_off2info.o)
 .note.GNU-stack
                0x0000000000000000        0x0 C:/Users/jukken/rpi4_hyp_803/src/hardware/startup/boards/../../../../install/aarch64le/usr/lib\libstartup.a(board_init.o)
 .note.GNU-stack
                0x0000000000000000        0x0 C:/Users/jukken/rpi4_hyp_803/src/hardware/startup/boards/../../../../install/aarch64le/usr/lib\libstartup.a(bootstrap_cmdline.o)
 .note.GNU-stack
                0x0000000000000000        0x0 C:/Users/jukken/rpi4_hyp_803/src/hardware/startup/boards/../../../../install/aarch64le/usr/lib\libstartup.a(callouts.o)
 .note.GNU-stack
                0x0000000000000000        0x0 C:/Users/jukken/rpi4_hyp_803/src/hardware/startup/boards/../../../../install/aarch64le/usr/lib\libstartup.a(common_options.o)
 .note.GNU-stack
                0x0000000000000000        0x0 C:/Users/jukken/rpi4_hyp_803/src/hardware/startup/boards/../../../../install/aarch64le/usr/lib\libstartup.a(cpu_cluster_add.o)
 .note.GNU-stack
                0x0000000000000000        0x0 C:/Users/jukken/rpi4_hyp_803/src/hardware/startup/boards/../../../../install/aarch64le/usr/lib\libstartup.a(cpu_common_options.o)
 .note.GNU-stack
                0x0000000000000000        0x0 C:/Users/jukken/rpi4_hyp_803/src/hardware/startup/boards/../../../../install/aarch64le/usr/lib\libstartup.a(cpu_startup.o)
 .note.GNU-stack
                0x0000000000000000        0x0 C:/Users/jukken/rpi4_hyp_803/src/hardware/startup/boards/../../../../install/aarch64le/usr/lib\libstartup.a(debug.o)
 .note.GNU-stack
                0x0000000000000000        0x0 C:/Users/jukken/rpi4_hyp_803/src/hardware/startup/boards/../../../../install/aarch64le/usr/lib\libstartup.a(fdt_init_bootopt.o)
 .note.GNU-stack
                0x0000000000000000        0x0 C:/Users/jukken/rpi4_hyp_803/src/hardware/startup/boards/../../../../install/aarch64le/usr/lib\libstartup.a(fdt_vars.o)
 .note.GNU-stack
                0x0000000000000000        0x0 C:/Users/jukken/rpi4_hyp_803/src/hardware/startup/boards/../../../../install/aarch64le/usr/lib\libstartup.a(getopt.o)
 .note.GNU-stack
                0x0000000000000000        0x0 C:/Users/jukken/rpi4_hyp_803/src/hardware/startup/boards/../../../../install/aarch64le/usr/lib\libstartup.a(getsize.o)
 .note.GNU-stack
                0x0000000000000000        0x0 C:/Users/jukken/rpi4_hyp_803/src/hardware/startup/boards/../../../../install/aarch64le/usr/lib\libstartup.a(gic.o)
 .note.GNU-stack
                0x0000000000000000        0x0 C:/Users/jukken/rpi4_hyp_803/src/hardware/startup/boards/../../../../install/aarch64le/usr/lib\libstartup.a(gic_v2.o)
 .note.GNU-stack
                0x0000000000000000        0x0 C:/Users/jukken/rpi4_hyp_803/src/hardware/startup/boards/../../../../install/aarch64le/usr/lib\libstartup.a(hw_serpl011.o)
 .note.GNU-stack
                0x0000000000000000        0x0 C:/Users/jukken/rpi4_hyp_803/src/hardware/startup/boards/../../../../install/aarch64le/usr/lib\libstartup.a(hwi_add_nanospin.o)
 .note.GNU-stack
                0x0000000000000000        0x0 C:/Users/jukken/rpi4_hyp_803/src/hardware/startup/boards/../../../../install/aarch64le/usr/lib\libstartup.a(hwi_alloc.o)
 .note.GNU-stack
                0x0000000000000000        0x0 C:/Users/jukken/rpi4_hyp_803/src/hardware/startup/boards/../../../../install/aarch64le/usr/lib\libstartup.a(hwi_find_as.o)
 .note.GNU-stack
                0x0000000000000000        0x0 C:/Users/jukken/rpi4_hyp_803/src/hardware/startup/boards/../../../../install/aarch64le/usr/lib\libstartup.a(hwidev_add.o)
 .note.GNU-stack
                0x0000000000000000        0x0 C:/Users/jukken/rpi4_hyp_803/src/hardware/startup/boards/../../../../install/aarch64le/usr/lib\libstartup.a(hwidev_add_dma.o)
 .note.GNU-stack
                0x0000000000000000        0x0 C:/Users/jukken/rpi4_hyp_803/src/hardware/startup/boards/../../../../install/aarch64le/usr/lib\libstartup.a(hwidev_add_enet.o)
 .note.GNU-stack
                0x0000000000000000        0x0 C:/Users/jukken/rpi4_hyp_803/src/hardware/startup/boards/../../../../install/aarch64le/usr/lib\libstartup.a(hwidev_add_timer.o)
 .note.GNU-stack
                0x0000000000000000        0x0 C:/Users/jukken/rpi4_hyp_803/src/hardware/startup/boards/../../../../install/aarch64le/usr/lib\libstartup.a(hwitag_add_common.o)
 .note.GNU-stack
                0x0000000000000000        0x0 C:/Users/jukken/rpi4_hyp_803/src/hardware/startup/boards/../../../../install/aarch64le/usr/lib\libstartup.a(hwitag_add_inputclk.o)
 .note.GNU-stack
                0x0000000000000000        0x0 C:/Users/jukken/rpi4_hyp_803/src/hardware/startup/boards/../../../../install/aarch64le/usr/lib\libstartup.a(hwitag_add_irq.o)
 .note.GNU-stack
                0x0000000000000000        0x0 C:/Users/jukken/rpi4_hyp_803/src/hardware/startup/boards/../../../../install/aarch64le/usr/lib\libstartup.a(hwitag_add_location.o)
 .note.GNU-stack
                0x0000000000000000        0x0 C:/Users/jukken/rpi4_hyp_803/src/hardware/startup/boards/../../../../install/aarch64le/usr/lib\libstartup.a(hwitag_add_nicaddr.o)
 .note.GNU-stack
                0x0000000000000000        0x0 C:/Users/jukken/rpi4_hyp_803/src/hardware/startup/boards/../../../../install/aarch64le/usr/lib\libstartup.a(hwitag_add_nicphyaddr.o)
 .note.GNU-stack
                0x0000000000000000        0x0 C:/Users/jukken/rpi4_hyp_803/src/hardware/startup/boards/../../../../install/aarch64le/usr/lib\libstartup.a(hwitag_add_regname.o)
 .note.GNU-stack
                0x0000000000000000        0x0 C:/Users/jukken/rpi4_hyp_803/src/hardware/startup/boards/../../../../install/aarch64le/usr/lib\libstartup.a(hwitag_set_inputclk.o)
 .note.GNU-stack
                0x0000000000000000        0x0 C:/Users/jukken/rpi4_hyp_803/src/hardware/startup/boards/../../../../install/aarch64le/usr/lib\libstartup.a(hwitag_set_ivec.o)
 .note.GNU-stack
                0x0000000000000000        0x0 C:/Users/jukken/rpi4_hyp_803/src/hardware/startup/boards/../../../../install/aarch64le/usr/lib\libstartup.a(hypervisor_setup.o)
 .note.GNU-stack
                0x0000000000000000        0x0 C:/Users/jukken/rpi4_hyp_803/src/hardware/startup/boards/../../../../install/aarch64le/usr/lib\libstartup.a(init_cacheattr.o)
 .note.GNU-stack
                0x0000000000000000        0x0 C:/Users/jukken/rpi4_hyp_803/src/hardware/startup/boards/../../../../install/aarch64le/usr/lib\libstartup.a(init_cpuinfo.o)
 .note.GNU-stack
                0x0000000000000000        0x0 C:/Users/jukken/rpi4_hyp_803/src/hardware/startup/boards/../../../../install/aarch64le/usr/lib\libstartup.a(init_mmu.o)
 .note.GNU-stack
                0x0000000000000000        0x0 C:/Users/jukken/rpi4_hyp_803/src/hardware/startup/boards/../../../../install/aarch64le/usr/lib\libstartup.a(init_qtime.o)
 .note.GNU-stack
                0x0000000000000000        0x0 C:/Users/jukken/rpi4_hyp_803/src/hardware/startup/boards/../../../../install/aarch64le/usr/lib\libstartup.a(init_qtime_v8gt.o)
 .note.GNU-stack
                0x0000000000000000        0x0 C:/Users/jukken/rpi4_hyp_803/src/hardware/startup/boards/../../../../install/aarch64le/usr/lib\libstartup.a(init_smp.o)
 .note.GNU-stack
                0x0000000000000000        0x0 C:/Users/jukken/rpi4_hyp_803/src/hardware/startup/boards/../../../../install/aarch64le/usr/lib\libstartup.a(init_system_private.o)
 .note.GNU-stack
                0x0000000000000000        0x0 C:/Users/jukken/rpi4_hyp_803/src/hardware/startup/boards/../../../../install/aarch64le/usr/lib\libstartup.a(invert_timer_freq.o)
 .note.GNU-stack
                0x0000000000000000        0x0 C:/Users/jukken/rpi4_hyp_803/src/hardware/startup/boards/../../../../install/aarch64le/usr/lib\libstartup.a(jtag.o)
 .note.GNU-stack
                0x0000000000000000        0x0 C:/Users/jukken/rpi4_hyp_803/src/hardware/startup/boards/../../../../install/aarch64le/usr/lib\libstartup.a(kprintf.o)
 .note.GNU-stack
                0x0000000000000000        0x0 C:/Users/jukken/rpi4_hyp_803/src/hardware/startup/boards/../../../../install/aarch64le/usr/lib\libstartup.a(load_ifs.o)
 .note.GNU-stack
                0x0000000000000000        0x0 C:/Users/jukken/rpi4_hyp_803/src/hardware/startup/boards/../../../../install/aarch64le/usr/lib\libstartup.a(map_callout_io.o)
 .note.GNU-stack
                0x0000000000000000        0x0 C:/Users/jukken/rpi4_hyp_803/src/hardware/startup/boards/../../../../install/aarch64le/usr/lib\libstartup.a(map_startup_mem.o)
 .note.GNU-stack
                0x0000000000000000        0x0 C:/Users/jukken/rpi4_hyp_803/src/hardware/startup/boards/../../../../install/aarch64le/usr/lib\libstartup.a(memcpy.o)
 .note.GNU-stack
                0x0000000000000000        0x0 C:/Users/jukken/rpi4_hyp_803/src/hardware/startup/boards/../../../../install/aarch64le/usr/lib\libstartup.a(memfuncs.o)
 .note.GNU-stack
                0x0000000000000000        0x0 C:/Users/jukken/rpi4_hyp_803/src/hardware/startup/boards/../../../../install/aarch64le/usr/lib\libstartup.a(memmove.o)
 .note.GNU-stack
                0x0000000000000000        0x0 C:/Users/jukken/rpi4_hyp_803/src/hardware/startup/boards/../../../../install/aarch64le/usr/lib\libstartup.a(print_sysp.o)
 .note.GNU-stack
                0x0000000000000000        0x0 C:/Users/jukken/rpi4_hyp_803/src/hardware/startup/boards/../../../../install/aarch64le/usr/lib\libstartup.a(ram.o)
 .note.GNU-stack
                0x0000000000000000        0x0 C:/Users/jukken/rpi4_hyp_803/src/hardware/startup/boards/../../../../install/aarch64le/usr/lib\libstartup.a(restore_ifs.o)
 .note.GNU-stack
                0x0000000000000000        0x0 C:/Users/jukken/rpi4_hyp_803/src/hardware/startup/boards/../../../../install/aarch64le/usr/lib\libstartup.a(ssp.o)
 .note.GNU-stack
                0x0000000000000000        0x0 C:/Users/jukken/rpi4_hyp_803/src/hardware/startup/boards/../../../../install/aarch64le/usr/lib\libstartup.a(startnext.o)
 .note.GNU-stack
                0x0000000000000000        0x0 C:/Users/jukken/rpi4_hyp_803/src/hardware/startup/boards/../../../../install/aarch64le/usr/lib\libstartup.a(strings.o)
 .note.GNU-stack
                0x0000000000000000        0x0 C:/Users/jukken/rpi4_hyp_803/src/hardware/startup/boards/../../../../install/aarch64le/usr/lib\libstartup.a(strtoul.o)
 .note.GNU-stack
                0x0000000000000000        0x0 C:/Users/jukken/rpi4_hyp_803/src/hardware/startup/boards/../../../../install/aarch64le/usr/lib\libstartup.a(syspage_memory.o)
 .note.GNU-stack
                0x0000000000000000        0x0 C:/Users/jukken/rpi4_hyp_803/src/hardware/startup/boards/../../../../install/aarch64le/usr/lib\libstartup.a(tweak_cmdline.o)
 .note.GNU-stack
                0x0000000000000000        0x0 C:/Users/jukken/rpi4_hyp_803/src/hardware/startup/boards/../../../../install/aarch64le/usr/lib\libstartup.a(uncompress.o)
 .note.GNU-stack
                0x0000000000000000        0x0 C:/Users/jukken/rpi4_hyp_803/src/hardware/startup/boards/../../../../install/aarch64le/usr/lib\libstartup.a(uncompress_ucl.o)
 .note.GNU-stack
                0x0000000000000000        0x0 C:/Users/jukken/rpi4_hyp_803/src/hardware/startup/boards/../../../../install/aarch64le/usr/lib\libstartup.a(aarch64_cpuid.o)
 .note.GNU-stack
                0x0000000000000000        0x0 C:/Users/jukken/rpi4_hyp_803/src/hardware/startup/boards/../../../../install/aarch64le/usr/lib\libstartup.a(aarch64_cpuspeed.o)
 .note.GNU-stack
                0x0000000000000000        0x0 C:/Users/jukken/rpi4_hyp_803/src/hardware/startup/boards/../../../../install/aarch64le/usr/lib\libstartup.a(aarch64_map.o)
 .note.GNU-stack
                0x0000000000000000        0x0 C:/Users/jukken/rpi4_hyp_803/src/hardware/startup/boards/../../../../install/aarch64le/usr/lib\libstartup.a(add_cache.o)
 .note.GNU-stack
                0x0000000000000000        0x0 C:/Users/jukken/rpi4_hyp_803/src/hardware/startup/boards/../../../../install/aarch64le/usr/lib\libstartup.a(alloc_qtime.o)
 .note.GNU-stack
                0x0000000000000000        0x0 C:/Users/jukken/rpi4_hyp_803/src/hardware/startup/boards/../../../../install/aarch64le/usr/lib\libstartup.a(ap_fail.o)
 .note.GNU-stack
                0x0000000000000000        0x0 C:/Users/jukken/rpi4_hyp_803/src/hardware/startup/boards/../../../../install/aarch64le/usr/lib\libstartup.a(as_add.o)
 .note.GNU-stack
                0x0000000000000000        0x0 C:/Users/jukken/rpi4_hyp_803/src/hardware/startup/boards/../../../../install/aarch64le/usr/lib\libstartup.a(as_add64.o)
 .note.GNU-stack
                0x0000000000000000        0x0 C:/Users/jukken/rpi4_hyp_803/src/hardware/startup/boards/../../../../install/aarch64le/usr/lib\libstartup.a(as_default.o)
 .note.GNU-stack
                0x0000000000000000        0x0 C:/Users/jukken/rpi4_hyp_803/src/hardware/startup/boards/../../../../install/aarch64le/usr/lib\libstartup.a(as_find.o)
 .note.GNU-stack
                0x0000000000000000        0x0 C:/Users/jukken/rpi4_hyp_803/src/hardware/startup/boards/../../../../install/aarch64le/usr/lib\libstartup.a(board_sysctl.o)
 .note.GNU-stack
                0x0000000000000000        0x0 C:/Users/jukken/rpi4_hyp_803/src/hardware/startup/boards/../../../../install/aarch64le/usr/lib\libstartup.a(boot_regs.o)
 .note.GNU-stack
                0x0000000000000000        0x0 C:/Users/jukken/rpi4_hyp_803/src/hardware/startup/boards/../../../../install/aarch64le/usr/lib\libstartup.a(cpu_startnext.o)
 .note.GNU-stack
                0x0000000000000000        0x0 C:/Users/jukken/rpi4_hyp_803/src/hardware/startup/boards/../../../../install/aarch64le/usr/lib\libstartup.a(cpu_syspage_memory.o)
 .note.GNU-stack
                0x0000000000000000        0x0 C:/Users/jukken/rpi4_hyp_803/src/hardware/startup/boards/../../../../install/aarch64le/usr/lib\libstartup.a(cpuid_a35.o)
 .note.GNU-stack
                0x0000000000000000        0x0 C:/Users/jukken/rpi4_hyp_803/src/hardware/startup/boards/../../../../install/aarch64le/usr/lib\libstartup.a(cpuid_a53.o)
 .note.GNU-stack
                0x0000000000000000        0x0 C:/Users/jukken/rpi4_hyp_803/src/hardware/startup/boards/../../../../install/aarch64le/usr/lib\libstartup.a(cpuid_a55.o)
 .note.GNU-stack
                0x0000000000000000        0x0 C:/Users/jukken/rpi4_hyp_803/src/hardware/startup/boards/../../../../install/aarch64le/usr/lib\libstartup.a(cpuid_a57.o)
 .note.GNU-stack
                0x0000000000000000        0x0 C:/Users/jukken/rpi4_hyp_803/src/hardware/startup/boards/../../../../install/aarch64le/usr/lib\libstartup.a(cpuid_a72.o)
 .note.GNU-stack
                0x0000000000000000        0x0 C:/Users/jukken/rpi4_hyp_803/src/hardware/startup/boards/../../../../install/aarch64le/usr/lib\libstartup.a(cpuid_a720.o)
 .note.GNU-stack
                0x0000000000000000        0x0 C:/Users/jukken/rpi4_hyp_803/src/hardware/startup/boards/../../../../install/aarch64le/usr/lib\libstartup.a(cpuid_a75.o)
 .note.GNU-stack
                0x0000000000000000        0x0 C:/Users/jukken/rpi4_hyp_803/src/hardware/startup/boards/../../../../install/aarch64le/usr/lib\libstartup.a(cpuid_a76.o)
 .note.GNU-stack
                0x0000000000000000        0x0 C:/Users/jukken/rpi4_hyp_803/src/hardware/startup/boards/../../../../install/aarch64le/usr/lib\libstartup.a(cpuid_a78ae.o)
 .note.GNU-stack
                0x0000000000000000        0x0 C:/Users/jukken/rpi4_hyp_803/src/hardware/startup/boards/../../../../install/aarch64le/usr/lib\libstartup.a(cpuid_d15.o)
 .note.GNU-stack
                0x0000000000000000        0x0 C:/Users/jukken/rpi4_hyp_803/src/hardware/startup/boards/../../../../install/aarch64le/usr/lib\libstartup.a(cpuid_d20.o)
 .note.GNU-stack
                0x0000000000000000        0x0 C:/Users/jukken/rpi4_hyp_803/src/hardware/startup/boards/../../../../install/aarch64le/usr/lib\libstartup.a(cpuid_n1.o)
 .note.GNU-stack
                0x0000000000000000        0x0 C:/Users/jukken/rpi4_hyp_803/src/hardware/startup/boards/../../../../install/aarch64le/usr/lib\libstartup.a(cpuid_neo_v1.o)
 .note.GNU-stack
                0x0000000000000000        0x0 C:/Users/jukken/rpi4_hyp_803/src/hardware/startup/boards/../../../../install/aarch64le/usr/lib\libstartup.a(cpuid_neo_v2.o)
 .note.GNU-stack
                0x0000000000000000        0x0 C:/Users/jukken/rpi4_hyp_803/src/hardware/startup/boards/../../../../install/aarch64le/usr/lib\libstartup.a(cpuid_v8_aem.o)
 .note.GNU-stack
                0x0000000000000000        0x0 C:/Users/jukken/rpi4_hyp_803/src/hardware/startup/boards/../../../../install/aarch64le/usr/lib\libstartup.a(cpuid_v8_fm.o)
 .note.GNU-stack
                0x0000000000000000        0x0 C:/Users/jukken/rpi4_hyp_803/src/hardware/startup/boards/../../../../install/aarch64le/usr/lib\libstartup.a(cpuid_x2.o)
 .note.GNU-stack
                0x0000000000000000        0x0 C:/Users/jukken/rpi4_hyp_803/src/hardware/startup/boards/../../../../install/aarch64le/usr/lib\libstartup.a(cpuid_x4.o)
 .note.GNU-stack
                0x0000000000000000        0x0 C:/Users/jukken/rpi4_hyp_803/src/hardware/startup/boards/../../../../install/aarch64le/usr/lib\libstartup.a(cpuid_x925.o)
 .note.GNU-stack
                0x0000000000000000        0x0 C:/Users/jukken/rpi4_hyp_803/src/hardware/startup/boards/../../../../install/aarch64le/usr/lib\libstartup.a(crash_done.o)
 .note.GNU-stack
                0x0000000000000000        0x0 C:/Users/jukken/rpi4_hyp_803/src/hardware/startup/boards/../../../../install/aarch64le/usr/lib\libstartup.a(dummy_print_char.o)
 .note.GNU-stack
                0x0000000000000000        0x0 C:/Users/jukken/rpi4_hyp_803/src/hardware/startup/boards/../../../../install/aarch64le/usr/lib\libstartup.a(elf.o)
 .note.GNU-stack
                0x0000000000000000        0x0 C:/Users/jukken/rpi4_hyp_803/src/hardware/startup/boards/../../../../install/aarch64le/usr/lib\libstartup.a(elf32.o)
 .note.GNU-stack
                0x0000000000000000        0x0 C:/Users/jukken/rpi4_hyp_803/src/hardware/startup/boards/../../../../install/aarch64le/usr/lib\libstartup.a(elf64.o)
 .note.GNU-stack
                0x0000000000000000        0x0 C:/Users/jukken/rpi4_hyp_803/src/hardware/startup/boards/../../../../install/aarch64le/usr/lib\libstartup.a(elf_map.o)
 .note.GNU-stack
                0x0000000000000000        0x0 C:/Users/jukken/rpi4_hyp_803/src/hardware/startup/boards/../../../../install/aarch64le/usr/lib\libstartup.a(hwi_add_device.o)
 .note.GNU-stack
                0x0000000000000000        0x0 C:/Users/jukken/rpi4_hyp_803/src/hardware/startup/boards/../../../../install/aarch64le/usr/lib\libstartup.a(hwi_default.o)
 .note.GNU-stack
                0x0000000000000000        0x0 C:/Users/jukken/rpi4_hyp_803/src/hardware/startup/boards/../../../../install/aarch64le/usr/lib\libstartup.a(hypervisor.o)
 .note.GNU-stack
                0x0000000000000000        0x0 C:/Users/jukken/rpi4_hyp_803/src/hardware/startup/boards/../../../../install/aarch64le/usr/lib\libstartup.a(init_mitigation_mem.o)
 .note.GNU-stack
                0x0000000000000000        0x0 C:/Users/jukken/rpi4_hyp_803/src/hardware/startup/boards/../../../../install/aarch64le/usr/lib\libstartup.a(rtc_time.o)
 .note.GNU-stack
                0x0000000000000000        0x0 C:/Users/jukken/rpi4_hyp_803/src/hardware/startup/boards/../../../../install/aarch64le/usr/lib\libstartup.a(startup_info.o)

.QNX.command.line
                0x0000000000000000    0x48ae3
 .QNX.command.line
                0x0000000000000000      0x8b9 C:/Users/jukken/rpi4_hyp_803/src/hardware/startup/boards/../../../../install/aarch64le/usr/lib\libstartup.a(_main.o)
 .QNX.command.line
                0x00000000000008b9      0x8d9 C:/Users/jukken/rpi4_hyp_803/src/hardware/startup/boards/../../../../install/aarch64le/usr/lib\libstartup.a(add_interrupt.o)
 .QNX.command.line
                0x0000000000001192      0x8e9 C:/Users/jukken/rpi4_hyp_803/src/hardware/startup/boards/../../../../install/aarch64le/usr/lib\libstartup.a(as_add_containing.o)
 .QNX.command.line
                0x0000000000001a7b      0x8ed C:/Users/jukken/rpi4_hyp_803/src/hardware/startup/boards/../../../../install/aarch64le/usr/lib\libstartup.a(as_find_containing.o)
 .QNX.command.line
                0x0000000000002368      0x8d1 C:/Users/jukken/rpi4_hyp_803/src/hardware/startup/boards/../../../../install/aarch64le/usr/lib\libstartup.a(as_off2info.o)
 .QNX.command.line
                0x0000000000002c39      0x8cd C:/Users/jukken/rpi4_hyp_803/src/hardware/startup/boards/../../../../install/aarch64le/usr/lib\libstartup.a(board_init.o)
 .QNX.command.line
                0x0000000000003506      0x8e9 C:/Users/jukken/rpi4_hyp_803/src/hardware/startup/boards/../../../../install/aarch64le/usr/lib\libstartup.a(bootstrap_cmdline.o)
 .QNX.command.line
                0x0000000000003def      0x8c5 C:/Users/jukken/rpi4_hyp_803/src/hardware/startup/boards/../../../../install/aarch64le/usr/lib\libstartup.a(callouts.o)
 .QNX.command.line
                0x00000000000046b4      0x8dd C:/Users/jukken/rpi4_hyp_803/src/hardware/startup/boards/../../../../install/aarch64le/usr/lib\libstartup.a(common_options.o)
 .QNX.command.line
                0x0000000000004f91      0x8e1 C:/Users/jukken/rpi4_hyp_803/src/hardware/startup/boards/../../../../install/aarch64le/usr/lib\libstartup.a(cpu_cluster_add.o)
 .QNX.command.line
                0x0000000000005872      0x8fd C:/Users/jukken/rpi4_hyp_803/src/hardware/startup/boards/../../../../install/aarch64le/usr/lib\libstartup.a(cpu_common_options.o)
 .QNX.command.line
                0x000000000000616f      0x8e1 C:/Users/jukken/rpi4_hyp_803/src/hardware/startup/boards/../../../../install/aarch64le/usr/lib\libstartup.a(cpu_startup.o)
 .QNX.command.line
                0x0000000000006a50      0x8b9 C:/Users/jukken/rpi4_hyp_803/src/hardware/startup/boards/../../../../install/aarch64le/usr/lib\libstartup.a(debug.o)
 .QNX.command.line
                0x0000000000007309      0x8e5 C:/Users/jukken/rpi4_hyp_803/src/hardware/startup/boards/../../../../install/aarch64le/usr/lib\libstartup.a(fdt_init_bootopt.o)
 .QNX.command.line
                0x0000000000007bee      0x8c5 C:/Users/jukken/rpi4_hyp_803/src/hardware/startup/boards/../../../../install/aarch64le/usr/lib\libstartup.a(fdt_vars.o)
 .QNX.command.line
                0x00000000000084b3      0x8bd C:/Users/jukken/rpi4_hyp_803/src/hardware/startup/boards/../../../../install/aarch64le/usr/lib\libstartup.a(getopt.o)
 .QNX.command.line
                0x0000000000008d70      0x8c1 C:/Users/jukken/rpi4_hyp_803/src/hardware/startup/boards/../../../../install/aarch64le/usr/lib\libstartup.a(getsize.o)
 .QNX.command.line
                0x0000000000009631      0x8c1 C:/Users/jukken/rpi4_hyp_803/src/hardware/startup/boards/../../../../install/aarch64le/usr/lib\libstartup.a(gic.o)
 .QNX.command.line
                0x0000000000009ef2      0x8cd C:/Users/jukken/rpi4_hyp_803/src/hardware/startup/boards/../../../../install/aarch64le/usr/lib\libstartup.a(gic_v2.o)
 .QNX.command.line
                0x000000000000a7bf      0x8e7 C:/Users/jukken/rpi4_hyp_803/src/hardware/startup/boards/../../../../install/aarch64le/usr/lib\libstartup.a(hw_serpl011.o)
 .QNX.command.line
                0x000000000000b0a6      0x8e5 C:/Users/jukken/rpi4_hyp_803/src/hardware/startup/boards/../../../../install/aarch64le/usr/lib\libstartup.a(hwi_add_nanospin.o)
 .QNX.command.line
                0x000000000000b98b      0x8c9 C:/Users/jukken/rpi4_hyp_803/src/hardware/startup/boards/../../../../install/aarch64le/usr/lib\libstartup.a(hwi_alloc.o)
 .QNX.command.line
                0x000000000000c254      0x8d1 C:/Users/jukken/rpi4_hyp_803/src/hardware/startup/boards/../../../../install/aarch64le/usr/lib\libstartup.a(hwi_find_as.o)
 .QNX.command.line
                0x000000000000cb25      0x8cd C:/Users/jukken/rpi4_hyp_803/src/hardware/startup/boards/../../../../install/aarch64le/usr/lib\libstartup.a(hwidev_add.o)
 .QNX.command.line
                0x000000000000d3f2      0x8dd C:/Users/jukken/rpi4_hyp_803/src/hardware/startup/boards/../../../../install/aarch64le/usr/lib\libstartup.a(hwidev_add_dma.o)
 .QNX.command.line
                0x000000000000dccf      0x8e1 C:/Users/jukken/rpi4_hyp_803/src/hardware/startup/boards/../../../../install/aarch64le/usr/lib\libstartup.a(hwidev_add_enet.o)
 .QNX.command.line
                0x000000000000e5b0      0x8e5 C:/Users/jukken/rpi4_hyp_803/src/hardware/startup/boards/../../../../install/aarch64le/usr/lib\libstartup.a(hwidev_add_timer.o)
 .QNX.command.line
                0x000000000000ee95      0x8e9 C:/Users/jukken/rpi4_hyp_803/src/hardware/startup/boards/../../../../install/aarch64le/usr/lib\libstartup.a(hwitag_add_common.o)
 .QNX.command.line
                0x000000000000f77e      0x8f1 C:/Users/jukken/rpi4_hyp_803/src/hardware/startup/boards/../../../../install/aarch64le/usr/lib\libstartup.a(hwitag_add_inputclk.o)
 .QNX.command.line
                0x000000000001006f      0x8dd C:/Users/jukken/rpi4_hyp_803/src/hardware/startup/boards/../../../../install/aarch64le/usr/lib\libstartup.a(hwitag_add_irq.o)
 .QNX.command.line
                0x000000000001094c      0x8f1 C:/Users/jukken/rpi4_hyp_803/src/hardware/startup/boards/../../../../install/aarch64le/usr/lib\libstartup.a(hwitag_add_location.o)
 .QNX.command.line
                0x000000000001123d      0x8ed C:/Users/jukken/rpi4_hyp_803/src/hardware/startup/boards/../../../../install/aarch64le/usr/lib\libstartup.a(hwitag_add_nicaddr.o)
 .QNX.command.line
                0x0000000000011b2a      0x8f9 C:/Users/jukken/rpi4_hyp_803/src/hardware/startup/boards/../../../../install/aarch64le/usr/lib\libstartup.a(hwitag_add_nicphyaddr.o)
 .QNX.command.line
                0x0000000000012423      0x8ed C:/Users/jukken/rpi4_hyp_803/src/hardware/startup/boards/../../../../install/aarch64le/usr/lib\libstartup.a(hwitag_add_regname.o)
 .QNX.command.line
                0x0000000000012d10      0x8f1 C:/Users/jukken/rpi4_hyp_803/src/hardware/startup/boards/../../../../install/aarch64le/usr/lib\libstartup.a(hwitag_set_inputclk.o)
 .QNX.command.line
                0x0000000000013601      0x8e1 C:/Users/jukken/rpi4_hyp_803/src/hardware/startup/boards/../../../../install/aarch64le/usr/lib\libstartup.a(hwitag_set_ivec.o)
 .QNX.command.line
                0x0000000000013ee2      0x8e5 C:/Users/jukken/rpi4_hyp_803/src/hardware/startup/boards/../../../../install/aarch64le/usr/lib\libstartup.a(hypervisor_setup.o)
 .QNX.command.line
                0x00000000000147c7      0x8dd C:/Users/jukken/rpi4_hyp_803/src/hardware/startup/boards/../../../../install/aarch64le/usr/lib\libstartup.a(init_cacheattr.o)
 .QNX.command.line
                0x00000000000150a4      0x8e5 C:/Users/jukken/rpi4_hyp_803/src/hardware/startup/boards/../../../../install/aarch64le/usr/lib\libstartup.a(init_cpuinfo.o)
 .QNX.command.line
                0x0000000000015989      0x8d5 C:/Users/jukken/rpi4_hyp_803/src/hardware/startup/boards/../../../../install/aarch64le/usr/lib\libstartup.a(init_mmu.o)
 .QNX.command.line
                0x000000000001625e      0x8dd C:/Users/jukken/rpi4_hyp_803/src/hardware/startup/boards/../../../../install/aarch64le/usr/lib\libstartup.a(init_qtime.o)
 .QNX.command.line
                0x0000000000016b3b      0x8f1 C:/Users/jukken/rpi4_hyp_803/src/hardware/startup/boards/../../../../install/aarch64le/usr/lib\libstartup.a(init_qtime_v8gt.o)
 .QNX.command.line
                0x000000000001742c      0x8c5 C:/Users/jukken/rpi4_hyp_803/src/hardware/startup/boards/../../../../install/aarch64le/usr/lib\libstartup.a(init_smp.o)
 .QNX.command.line
                0x0000000000017cf1      0x8f1 C:/Users/jukken/rpi4_hyp_803/src/hardware/startup/boards/../../../../install/aarch64le/usr/lib\libstartup.a(init_system_private.o)
 .QNX.command.line
                0x00000000000185e2      0x8e9 C:/Users/jukken/rpi4_hyp_803/src/hardware/startup/boards/../../../../install/aarch64le/usr/lib\libstartup.a(invert_timer_freq.o)
 .QNX.command.line
                0x0000000000018ecb      0x8b5 C:/Users/jukken/rpi4_hyp_803/src/hardware/startup/boards/../../../../install/aarch64le/usr/lib\libstartup.a(jtag.o)
 .QNX.command.line
                0x0000000000019780      0x8c1 C:/Users/jukken/rpi4_hyp_803/src/hardware/startup/boards/../../../../install/aarch64le/usr/lib\libstartup.a(kprintf.o)
 .QNX.command.line
                0x000000000001a041      0x8c5 C:/Users/jukken/rpi4_hyp_803/src/hardware/startup/boards/../../../../install/aarch64le/usr/lib\libstartup.a(load_ifs.o)
 .QNX.command.line
                0x000000000001a906      0x8ed C:/Users/jukken/rpi4_hyp_803/src/hardware/startup/boards/../../../../install/aarch64le/usr/lib\libstartup.a(map_callout_io.o)
 .QNX.command.line
                0x000000000001b1f3      0x8f1 C:/Users/jukken/rpi4_hyp_803/src/hardware/startup/boards/../../../../install/aarch64le/usr/lib\libstartup.a(map_startup_mem.o)
 .QNX.command.line
                0x000000000001bae4      0x8bd C:/Users/jukken/rpi4_hyp_803/src/hardware/startup/boards/../../../../install/aarch64le/usr/lib\libstartup.a(memcpy.o)
 .QNX.command.line
                0x000000000001c3a1      0x8c5 C:/Users/jukken/rpi4_hyp_803/src/hardware/startup/boards/../../../../install/aarch64le/usr/lib\libstartup.a(memfuncs.o)
 .QNX.command.line
                0x000000000001cc66      0x8c1 C:/Users/jukken/rpi4_hyp_803/src/hardware/startup/boards/../../../../install/aarch64le/usr/lib\libstartup.a(memmove.o)
 .QNX.command.line
                0x000000000001d527      0x8cd C:/Users/jukken/rpi4_hyp_803/src/hardware/startup/boards/../../../../install/aarch64le/usr/lib\libstartup.a(print_sysp.o)
 .QNX.command.line
                0x000000000001ddf4      0x8b1 C:/Users/jukken/rpi4_hyp_803/src/hardware/startup/boards/../../../../install/aarch64le/usr/lib\libstartup.a(ram.o)
 .QNX.command.line
                0x000000000001e6a5      0x8d1 C:/Users/jukken/rpi4_hyp_803/src/hardware/startup/boards/../../../../install/aarch64le/usr/lib\libstartup.a(restore_ifs.o)
 .QNX.command.line
                0x000000000001ef76      0x8b1 C:/Users/jukken/rpi4_hyp_803/src/hardware/startup/boards/../../../../install/aarch64le/usr/lib\libstartup.a(ssp.o)
 .QNX.command.line
                0x000000000001f827      0x8c9 C:/Users/jukken/rpi4_hyp_803/src/hardware/startup/boards/../../../../install/aarch64le/usr/lib\libstartup.a(startnext.o)
 .QNX.command.line
                0x00000000000200f0      0x8c1 C:/Users/jukken/rpi4_hyp_803/src/hardware/startup/boards/../../../../install/aarch64le/usr/lib\libstartup.a(strings.o)
 .QNX.command.line
                0x00000000000209b1      0x8c1 C:/Users/jukken/rpi4_hyp_803/src/hardware/startup/boards/../../../../install/aarch64le/usr/lib\libstartup.a(strtoul.o)
 .QNX.command.line
                0x0000000000021272      0x8dd C:/Users/jukken/rpi4_hyp_803/src/hardware/startup/boards/../../../../install/aarch64le/usr/lib\libstartup.a(syspage_memory.o)
 .QNX.command.line
                0x0000000000021b4f      0x8d9 C:/Users/jukken/rpi4_hyp_803/src/hardware/startup/boards/../../../../install/aarch64le/usr/lib\libstartup.a(tweak_cmdline.o)
 .QNX.command.line
                0x0000000000022428      0x8cd C:/Users/jukken/rpi4_hyp_803/src/hardware/startup/boards/../../../../install/aarch64le/usr/lib\libstartup.a(uncompress.o)
 .QNX.command.line
                0x0000000000022cf5      0x8dd C:/Users/jukken/rpi4_hyp_803/src/hardware/startup/boards/../../../../install/aarch64le/usr/lib\libstartup.a(uncompress_ucl.o)
 .QNX.command.line
                0x00000000000235d2      0x8e9 C:/Users/jukken/rpi4_hyp_803/src/hardware/startup/boards/../../../../install/aarch64le/usr/lib\libstartup.a(aarch64_cpuid.o)
 .QNX.command.line
                0x0000000000023ebb      0x8f5 C:/Users/jukken/rpi4_hyp_803/src/hardware/startup/boards/../../../../install/aarch64le/usr/lib\libstartup.a(aarch64_cpuspeed.o)
 .QNX.command.line
                0x00000000000247b0      0x8e1 C:/Users/jukken/rpi4_hyp_803/src/hardware/startup/boards/../../../../install/aarch64le/usr/lib\libstartup.a(aarch64_map.o)
 .QNX.command.line
                0x0000000000025091      0x8c9 C:/Users/jukken/rpi4_hyp_803/src/hardware/startup/boards/../../../../install/aarch64le/usr/lib\libstartup.a(add_cache.o)
 .QNX.command.line
                0x000000000002595a      0x8d1 C:/Users/jukken/rpi4_hyp_803/src/hardware/startup/boards/../../../../install/aarch64le/usr/lib\libstartup.a(alloc_qtime.o)
 .QNX.command.line
                0x000000000002622b      0x8c1 C:/Users/jukken/rpi4_hyp_803/src/hardware/startup/boards/../../../../install/aarch64le/usr/lib\libstartup.a(ap_fail.o)
 .QNX.command.line
                0x0000000000026aec      0x8bd C:/Users/jukken/rpi4_hyp_803/src/hardware/startup/boards/../../../../install/aarch64le/usr/lib\libstartup.a(as_add.o)
 .QNX.command.line
                0x00000000000273a9      0x8c5 C:/Users/jukken/rpi4_hyp_803/src/hardware/startup/boards/../../../../install/aarch64le/usr/lib\libstartup.a(as_add64.o)
 .QNX.command.line
                0x0000000000027c6e      0x8dd C:/Users/jukken/rpi4_hyp_803/src/hardware/startup/boards/../../../../install/aarch64le/usr/lib\libstartup.a(as_default.o)
 .QNX.command.line
                0x000000000002854b      0x8c1 C:/Users/jukken/rpi4_hyp_803/src/hardware/startup/boards/../../../../install/aarch64le/usr/lib\libstartup.a(as_find.o)
 .QNX.command.line
                0x0000000000028e0c      0x8e5 C:/Users/jukken/rpi4_hyp_803/src/hardware/startup/boards/../../../../install/aarch64le/usr/lib\libstartup.a(board_sysctl.o)
 .QNX.command.line
                0x00000000000296f1      0x8d9 C:/Users/jukken/rpi4_hyp_803/src/hardware/startup/boards/../../../../install/aarch64le/usr/lib\libstartup.a(boot_regs.o)
 .QNX.command.line
                0x0000000000029fca      0x8e9 C:/Users/jukken/rpi4_hyp_803/src/hardware/startup/boards/../../../../install/aarch64le/usr/lib\libstartup.a(cpu_startnext.o)
 .QNX.command.line
                0x000000000002a8b3      0x8fd C:/Users/jukken/rpi4_hyp_803/src/hardware/startup/boards/../../../../install/aarch64le/usr/lib\libstartup.a(cpu_syspage_memory.o)
 .QNX.command.line
                0x000000000002b1b0      0x8d9 C:/Users/jukken/rpi4_hyp_803/src/hardware/startup/boards/../../../../install/aarch64le/usr/lib\libstartup.a(cpuid_a35.o)
 .QNX.command.line
                0x000000000002ba89      0x8d9 C:/Users/jukken/rpi4_hyp_803/src/hardware/startup/boards/../../../../install/aarch64le/usr/lib\libstartup.a(cpuid_a53.o)
 .QNX.command.line
                0x000000000002c362      0x8d9 C:/Users/jukken/rpi4_hyp_803/src/hardware/startup/boards/../../../../install/aarch64le/usr/lib\libstartup.a(cpuid_a55.o)
 .QNX.command.line
                0x000000000002cc3b      0x8d9 C:/Users/jukken/rpi4_hyp_803/src/hardware/startup/boards/../../../../install/aarch64le/usr/lib\libstartup.a(cpuid_a57.o)
 .QNX.command.line
                0x000000000002d514      0x8d9 C:/Users/jukken/rpi4_hyp_803/src/hardware/startup/boards/../../../../install/aarch64le/usr/lib\libstartup.a(cpuid_a72.o)
 .QNX.command.line
                0x000000000002dded      0x8dd C:/Users/jukken/rpi4_hyp_803/src/hardware/startup/boards/../../../../install/aarch64le/usr/lib\libstartup.a(cpuid_a720.o)
 .QNX.command.line
                0x000000000002e6ca      0x8d9 C:/Users/jukken/rpi4_hyp_803/src/hardware/startup/boards/../../../../install/aarch64le/usr/lib\libstartup.a(cpuid_a75.o)
 .QNX.command.line
                0x000000000002efa3      0x8d9 C:/Users/jukken/rpi4_hyp_803/src/hardware/startup/boards/../../../../install/aarch64le/usr/lib\libstartup.a(cpuid_a76.o)
 .QNX.command.line
                0x000000000002f87c      0x8e1 C:/Users/jukken/rpi4_hyp_803/src/hardware/startup/boards/../../../../install/aarch64le/usr/lib\libstartup.a(cpuid_a78ae.o)
 .QNX.command.line
                0x000000000003015d      0x8d9 C:/Users/jukken/rpi4_hyp_803/src/hardware/startup/boards/../../../../install/aarch64le/usr/lib\libstartup.a(cpuid_d15.o)
 .QNX.command.line
                0x0000000000030a36      0x8d9 C:/Users/jukken/rpi4_hyp_803/src/hardware/startup/boards/../../../../install/aarch64le/usr/lib\libstartup.a(cpuid_d20.o)
 .QNX.command.line
                0x000000000003130f      0x8d5 C:/Users/jukken/rpi4_hyp_803/src/hardware/startup/boards/../../../../install/aarch64le/usr/lib\libstartup.a(cpuid_n1.o)
 .QNX.command.line
                0x0000000000031be4      0x8e5 C:/Users/jukken/rpi4_hyp_803/src/hardware/startup/boards/../../../../install/aarch64le/usr/lib\libstartup.a(cpuid_neo_v1.o)
 .QNX.command.line
                0x00000000000324c9      0x8e5 C:/Users/jukken/rpi4_hyp_803/src/hardware/startup/boards/../../../../install/aarch64le/usr/lib\libstartup.a(cpuid_neo_v2.o)
 .QNX.command.line
                0x0000000000032dae      0x8e5 C:/Users/jukken/rpi4_hyp_803/src/hardware/startup/boards/../../../../install/aarch64le/usr/lib\libstartup.a(cpuid_v8_aem.o)
 .QNX.command.line
                0x0000000000033693      0x8e1 C:/Users/jukken/rpi4_hyp_803/src/hardware/startup/boards/../../../../install/aarch64le/usr/lib\libstartup.a(cpuid_v8_fm.o)
 .QNX.command.line
                0x0000000000033f74      0x8d5 C:/Users/jukken/rpi4_hyp_803/src/hardware/startup/boards/../../../../install/aarch64le/usr/lib\libstartup.a(cpuid_x2.o)
 .QNX.command.line
                0x0000000000034849      0x8d5 C:/Users/jukken/rpi4_hyp_803/src/hardware/startup/boards/../../../../install/aarch64le/usr/lib\libstartup.a(cpuid_x4.o)
 .QNX.command.line
                0x000000000003511e      0x8dd C:/Users/jukken/rpi4_hyp_803/src/hardware/startup/boards/../../../../install/aarch64le/usr/lib\libstartup.a(cpuid_x925.o)
 .QNX.command.line
                0x00000000000359fb      0x8dd C:/Users/jukken/rpi4_hyp_803/src/hardware/startup/boards/../../../../install/aarch64le/usr/lib\libstartup.a(crash_done.o)
 .QNX.command.line
                0x00000000000362d8      0x8e5 C:/Users/jukken/rpi4_hyp_803/src/hardware/startup/boards/../../../../install/aarch64le/usr/lib\libstartup.a(dummy_print_char.o)
 .QNX.command.line
                0x0000000000036bbd      0x8b1 C:/Users/jukken/rpi4_hyp_803/src/hardware/startup/boards/../../../../install/aarch64le/usr/lib\libstartup.a(elf.o)
 .QNX.command.line
                0x000000000003746e      0x8b9 C:/Users/jukken/rpi4_hyp_803/src/hardware/startup/boards/../../../../install/aarch64le/usr/lib\libstartup.a(elf32.o)
 .QNX.command.line
                0x0000000000037d27      0x8b9 C:/Users/jukken/rpi4_hyp_803/src/hardware/startup/boards/../../../../install/aarch64le/usr/lib\libstartup.a(elf64.o)
 .QNX.command.line
                0x00000000000385e0      0x8d1 C:/Users/jukken/rpi4_hyp_803/src/hardware/startup/boards/../../../../install/aarch64le/usr/lib\libstartup.a(elf_map.o)
 .QNX.command.line
                0x0000000000038eb1      0x8dd C:/Users/jukken/rpi4_hyp_803/src/hardware/startup/boards/../../../../install/aarch64le/usr/lib\libstartup.a(hwi_add_device.o)
 .QNX.command.line
                0x000000000003978e      0x8d1 C:/Users/jukken/rpi4_hyp_803/src/hardware/startup/boards/../../../../install/aarch64le/usr/lib\libstartup.a(hwi_default.o)
 .QNX.command.line
                0x000000000003a05f      0x8dd C:/Users/jukken/rpi4_hyp_803/src/hardware/startup/boards/../../../../install/aarch64le/usr/lib\libstartup.a(hypervisor.o)
 .QNX.command.line
                0x000000000003a93c      0x901 C:/Users/jukken/rpi4_hyp_803/src/hardware/startup/boards/../../../../install/aarch64le/usr/lib\libstartup.a(init_mitigation_mem.o)
 .QNX.command.line
                0x000000000003b23d      0x8d5 C:/Users/jukken/rpi4_hyp_803/src/hardware/startup/boards/../../../../install/aarch64le/usr/lib\libstartup.a(rtc_time.o)
 .QNX.command.line
                0x000000000003bb12      0x8d5 C:/Users/jukken/rpi4_hyp_803/src/hardware/startup/boards/../../../../install/aarch64le/usr/lib\libstartup.a(startup_info.o)
 .QNX.command.line
                0x000000000003c3e7      0x7e8 C:/Users/jukken/qnx803/target/qnx/aarch64le/usr/lib\libucl.a(n2b_d.o)
 .QNX.command.line
                0x000000000003cbcf      0x733 C:/Users/jukken/qnx803/target/qnx/aarch64le/usr/lib\libfdt.a(fdt.o)
 .QNX.command.line
                0x000000000003d302      0x73f C:/Users/jukken/qnx803/target/qnx/aarch64le/usr/lib\libfdt.a(fdt_ro.o)
 .QNX.command.line
                0x000000000003da41      0x9c2 C:/Users/jukken/qnx803/target/qnx/aarch64le/lib\libc.a(hwi_find_item.o)
 .QNX.command.line
                0x000000000003e403      0x9be C:/Users/jukken/qnx803/target/qnx/aarch64le/lib\libc.a(hwi_next_tag.o)
 .QNX.command.line
                0x000000000003edc1      0x9ba C:/Users/jukken/qnx803/target/qnx/aarch64le/lib\libc.a(hwi_off2tag.o)
 .QNX.command.line
                0x000000000003f77b      0x9ba C:/Users/jukken/qnx803/target/qnx/aarch64le/lib\libc.a(hwi_tag2off.o)
 .QNX.command.line
                0x0000000000040135      0x9cb C:/Users/jukken/qnx803/target/qnx/aarch64le/lib\libc.a(memchr.o)
 .QNX.command.line
                0x0000000000040b00      0x9cb C:/Users/jukken/qnx803/target/qnx/aarch64le/lib\libc.a(memset.o)
 .QNX.command.line
                0x00000000000414cb      0x9cb C:/Users/jukken/qnx803/target/qnx/aarch64le/lib\libc.a(strchr.o)
 .QNX.command.line
                0x0000000000041e96      0x9cf C:/Users/jukken/qnx803/target/qnx/aarch64le/lib\libc.a(strlcpy.o)
 .QNX.command.line
                0x0000000000042865      0x9cf C:/Users/jukken/qnx803/target/qnx/aarch64le/lib\libc.a(strnlen.o)
 .QNX.command.line
                0x0000000000043234      0x9cf C:/Users/jukken/qnx803/target/qnx/aarch64le/lib\libc.a(strrchr.o)
 .QNX.command.line
                0x0000000000043c03      0x9cb C:/Users/jukken/qnx803/target/qnx/aarch64le/lib\libc.a(strtol.o)
 .QNX.command.line
                0x00000000000445ce      0x9ce C:/Users/jukken/qnx803/target/qnx/aarch64le/lib\libc.a(__progname.o)
 .QNX.command.line
                0x0000000000044f9c      0x9b6 C:/Users/jukken/qnx803/target/qnx/aarch64le/lib\libc.a(_ssp.o)
 .QNX.command.line
                0x0000000000045952      0x9ea C:/Users/jukken/qnx803/target/qnx/aarch64le/lib\libc.a(__stack_chk_guard.o)
 .QNX.command.line
                0x000000000004633c      0x9be C:/Users/jukken/qnx803/target/qnx/aarch64le/lib\libc.a(getsubopt.o)
 .QNX.command.line
                0x0000000000046cfa      0xa0f C:/Users/jukken/qnx803/target/qnx/aarch64le/lib\libc.a(xstoint.o)
 .QNX.command.line
                0x0000000000047709      0x9cf C:/Users/jukken/qnx803/target/qnx/aarch64le/lib\libc.a(strncmp.o)
 .QNX.command.line
                0x00000000000480d8      0xa0b C:/Users/jukken/qnx803/target/qnx/aarch64le/lib\libc.a(xctype.o)

.qnx.srctrack   0x0000000000000000   0x123497
 .qnx.srctrack  0x0000000000000000     0x2996 C:/Users/jukken/rpi4_hyp_803/src/hardware/startup/boards/../../../../install/aarch64le/usr/lib\libstartup.a(_main.o)
 .qnx.srctrack  0x0000000000002996     0x28ef C:/Users/jukken/rpi4_hyp_803/src/hardware/startup/boards/../../../../install/aarch64le/usr/lib\libstartup.a(add_interrupt.o)
 .qnx.srctrack  0x0000000000005285     0x28f3 C:/Users/jukken/rpi4_hyp_803/src/hardware/startup/boards/../../../../install/aarch64le/usr/lib\libstartup.a(as_add_containing.o)
 .qnx.srctrack  0x0000000000007b78     0x28f4 C:/Users/jukken/rpi4_hyp_803/src/hardware/startup/boards/../../../../install/aarch64le/usr/lib\libstartup.a(as_find_containing.o)
 .qnx.srctrack  0x000000000000a46c     0x28ed C:/Users/jukken/rpi4_hyp_803/src/hardware/startup/boards/../../../../install/aarch64le/usr/lib\libstartup.a(as_off2info.o)
 .qnx.srctrack  0x000000000000cd59     0x28ec C:/Users/jukken/rpi4_hyp_803/src/hardware/startup/boards/../../../../install/aarch64le/usr/lib\libstartup.a(board_init.o)
 .qnx.srctrack  0x000000000000f645     0x28f3 C:/Users/jukken/rpi4_hyp_803/src/hardware/startup/boards/../../../../install/aarch64le/usr/lib\libstartup.a(bootstrap_cmdline.o)
 .qnx.srctrack  0x0000000000011f38     0x28ea C:/Users/jukken/rpi4_hyp_803/src/hardware/startup/boards/../../../../install/aarch64le/usr/lib\libstartup.a(callouts.o)
 .qnx.srctrack  0x0000000000014822     0x28f0 C:/Users/jukken/rpi4_hyp_803/src/hardware/startup/boards/../../../../install/aarch64le/usr/lib\libstartup.a(common_options.o)
 .qnx.srctrack  0x0000000000017112     0x28f1 C:/Users/jukken/rpi4_hyp_803/src/hardware/startup/boards/../../../../install/aarch64le/usr/lib\libstartup.a(cpu_cluster_add.o)
 .qnx.srctrack  0x0000000000019a03     0x28fc C:/Users/jukken/rpi4_hyp_803/src/hardware/startup/boards/../../../../install/aarch64le/usr/lib\libstartup.a(cpu_common_options.o)
 .qnx.srctrack  0x000000000001c2ff     0x28f5 C:/Users/jukken/rpi4_hyp_803/src/hardware/startup/boards/../../../../install/aarch64le/usr/lib\libstartup.a(cpu_startup.o)
 .qnx.srctrack  0x000000000001ebf4     0x28e7 C:/Users/jukken/rpi4_hyp_803/src/hardware/startup/boards/../../../../install/aarch64le/usr/lib\libstartup.a(debug.o)
 .qnx.srctrack  0x00000000000214db     0x2c56 C:/Users/jukken/rpi4_hyp_803/src/hardware/startup/boards/../../../../install/aarch64le/usr/lib\libstartup.a(fdt_init_bootopt.o)
 .qnx.srctrack  0x0000000000024131     0x2c4e C:/Users/jukken/rpi4_hyp_803/src/hardware/startup/boards/../../../../install/aarch64le/usr/lib\libstartup.a(fdt_vars.o)
 .qnx.srctrack  0x0000000000026d7f     0x28e8 C:/Users/jukken/rpi4_hyp_803/src/hardware/startup/boards/../../../../install/aarch64le/usr/lib\libstartup.a(getopt.o)
 .qnx.srctrack  0x0000000000029667     0x28e9 C:/Users/jukken/rpi4_hyp_803/src/hardware/startup/boards/../../../../install/aarch64le/usr/lib\libstartup.a(getsize.o)
 .qnx.srctrack  0x000000000002bf50     0x28ed C:/Users/jukken/rpi4_hyp_803/src/hardware/startup/boards/../../../../install/aarch64le/usr/lib\libstartup.a(gic.o)
 .qnx.srctrack  0x000000000002e83d     0x298e C:/Users/jukken/rpi4_hyp_803/src/hardware/startup/boards/../../../../install/aarch64le/usr/lib\libstartup.a(gic_v2.o)
 .qnx.srctrack  0x00000000000311cb     0x29ab C:/Users/jukken/rpi4_hyp_803/src/hardware/startup/boards/../../../../install/aarch64le/usr/lib\libstartup.a(hw_serpl011.o)
 .qnx.srctrack  0x0000000000033b76     0x28f2 C:/Users/jukken/rpi4_hyp_803/src/hardware/startup/boards/../../../../install/aarch64le/usr/lib\libstartup.a(hwi_add_nanospin.o)
 .qnx.srctrack  0x0000000000036468     0x28eb C:/Users/jukken/rpi4_hyp_803/src/hardware/startup/boards/../../../../install/aarch64le/usr/lib\libstartup.a(hwi_alloc.o)
 .qnx.srctrack  0x0000000000038d53     0x28ed C:/Users/jukken/rpi4_hyp_803/src/hardware/startup/boards/../../../../install/aarch64le/usr/lib\libstartup.a(hwi_find_as.o)
 .qnx.srctrack  0x000000000003b640     0x28ec C:/Users/jukken/rpi4_hyp_803/src/hardware/startup/boards/../../../../install/aarch64le/usr/lib\libstartup.a(hwidev_add.o)
 .qnx.srctrack  0x000000000003df2c     0x2ae0 C:/Users/jukken/rpi4_hyp_803/src/hardware/startup/boards/../../../../install/aarch64le/usr/lib\libstartup.a(hwidev_add_dma.o)
 .qnx.srctrack  0x0000000000040a0c     0x2ae1 C:/Users/jukken/rpi4_hyp_803/src/hardware/startup/boards/../../../../install/aarch64le/usr/lib\libstartup.a(hwidev_add_enet.o)
 .qnx.srctrack  0x00000000000434ed     0x2ae2 C:/Users/jukken/rpi4_hyp_803/src/hardware/startup/boards/../../../../install/aarch64le/usr/lib\libstartup.a(hwidev_add_timer.o)
 .qnx.srctrack  0x0000000000045fcf     0x2a2e C:/Users/jukken/rpi4_hyp_803/src/hardware/startup/boards/../../../../install/aarch64le/usr/lib\libstartup.a(hwitag_add_common.o)
 .qnx.srctrack  0x00000000000489fd     0x28f5 C:/Users/jukken/rpi4_hyp_803/src/hardware/startup/boards/../../../../install/aarch64le/usr/lib\libstartup.a(hwitag_add_inputclk.o)
 .qnx.srctrack  0x000000000004b2f2     0x28f0 C:/Users/jukken/rpi4_hyp_803/src/hardware/startup/boards/../../../../install/aarch64le/usr/lib\libstartup.a(hwitag_add_irq.o)
 .qnx.srctrack  0x000000000004dbe2     0x28f5 C:/Users/jukken/rpi4_hyp_803/src/hardware/startup/boards/../../../../install/aarch64le/usr/lib\libstartup.a(hwitag_add_location.o)
 .qnx.srctrack  0x00000000000504d7     0x28f4 C:/Users/jukken/rpi4_hyp_803/src/hardware/startup/boards/../../../../install/aarch64le/usr/lib\libstartup.a(hwitag_add_nicaddr.o)
 .qnx.srctrack  0x0000000000052dcb     0x28f7 C:/Users/jukken/rpi4_hyp_803/src/hardware/startup/boards/../../../../install/aarch64le/usr/lib\libstartup.a(hwitag_add_nicphyaddr.o)
 .qnx.srctrack  0x00000000000556c2     0x28f4 C:/Users/jukken/rpi4_hyp_803/src/hardware/startup/boards/../../../../install/aarch64le/usr/lib\libstartup.a(hwitag_add_regname.o)
 .qnx.srctrack  0x0000000000057fb6     0x2a44 C:/Users/jukken/rpi4_hyp_803/src/hardware/startup/boards/../../../../install/aarch64le/usr/lib\libstartup.a(hwitag_set_inputclk.o)
 .qnx.srctrack  0x000000000005a9fa     0x2a40 C:/Users/jukken/rpi4_hyp_803/src/hardware/startup/boards/../../../../install/aarch64le/usr/lib\libstartup.a(hwitag_set_ivec.o)
 .qnx.srctrack  0x000000000005d43a     0x28f2 C:/Users/jukken/rpi4_hyp_803/src/hardware/startup/boards/../../../../install/aarch64le/usr/lib\libstartup.a(hypervisor_setup.o)
 .qnx.srctrack  0x000000000005fd2c     0x28f0 C:/Users/jukken/rpi4_hyp_803/src/hardware/startup/boards/../../../../install/aarch64le/usr/lib\libstartup.a(init_cacheattr.o)
 .qnx.srctrack  0x000000000006261c     0x28f6 C:/Users/jukken/rpi4_hyp_803/src/hardware/startup/boards/../../../../install/aarch64le/usr/lib\libstartup.a(init_cpuinfo.o)
 .qnx.srctrack  0x0000000000064f12     0x29a7 C:/Users/jukken/rpi4_hyp_803/src/hardware/startup/boards/../../../../install/aarch64le/usr/lib\libstartup.a(init_mmu.o)
 .qnx.srctrack  0x00000000000678b9     0x28f4 C:/Users/jukken/rpi4_hyp_803/src/hardware/startup/boards/../../../../install/aarch64le/usr/lib\libstartup.a(init_qtime.o)
 .qnx.srctrack  0x000000000006a1ad     0x28f9 C:/Users/jukken/rpi4_hyp_803/src/hardware/startup/boards/../../../../install/aarch64le/usr/lib\libstartup.a(init_qtime_v8gt.o)
 .qnx.srctrack  0x000000000006caa6     0x2a33 C:/Users/jukken/rpi4_hyp_803/src/hardware/startup/boards/../../../../install/aarch64le/usr/lib\libstartup.a(init_smp.o)
 .qnx.srctrack  0x000000000006f4d9     0x28f5 C:/Users/jukken/rpi4_hyp_803/src/hardware/startup/boards/../../../../install/aarch64le/usr/lib\libstartup.a(init_system_private.o)
 .qnx.srctrack  0x0000000000071dce     0x28f3 C:/Users/jukken/rpi4_hyp_803/src/hardware/startup/boards/../../../../install/aarch64le/usr/lib\libstartup.a(invert_timer_freq.o)
 .qnx.srctrack  0x00000000000746c1     0x28e6 C:/Users/jukken/rpi4_hyp_803/src/hardware/startup/boards/../../../../install/aarch64le/usr/lib\libstartup.a(jtag.o)
 .qnx.srctrack  0x0000000000076fa7     0x28e9 C:/Users/jukken/rpi4_hyp_803/src/hardware/startup/boards/../../../../install/aarch64le/usr/lib\libstartup.a(kprintf.o)
 .qnx.srctrack  0x0000000000079890     0x28ea C:/Users/jukken/rpi4_hyp_803/src/hardware/startup/boards/../../../../install/aarch64le/usr/lib\libstartup.a(load_ifs.o)
 .qnx.srctrack  0x000000000007c17a     0x28f8 C:/Users/jukken/rpi4_hyp_803/src/hardware/startup/boards/../../../../install/aarch64le/usr/lib\libstartup.a(map_callout_io.o)
 .qnx.srctrack  0x000000000007ea72     0x28f9 C:/Users/jukken/rpi4_hyp_803/src/hardware/startup/boards/../../../../install/aarch64le/usr/lib\libstartup.a(map_startup_mem.o)
 .qnx.srctrack  0x000000000008136b      0xa63 C:/Users/jukken/rpi4_hyp_803/src/hardware/startup/boards/../../../../install/aarch64le/usr/lib\libstartup.a(memcpy.o)
 .qnx.srctrack  0x0000000000081dce     0x28ea C:/Users/jukken/rpi4_hyp_803/src/hardware/startup/boards/../../../../install/aarch64le/usr/lib\libstartup.a(memfuncs.o)
 .qnx.srctrack  0x00000000000846b8      0x902 C:/Users/jukken/rpi4_hyp_803/src/hardware/startup/boards/../../../../install/aarch64le/usr/lib\libstartup.a(memmove.o)
 .qnx.srctrack  0x0000000000084fba     0x2a1f C:/Users/jukken/rpi4_hyp_803/src/hardware/startup/boards/../../../../install/aarch64le/usr/lib\libstartup.a(print_sysp.o)
 .qnx.srctrack  0x00000000000879d9     0x28e5 C:/Users/jukken/rpi4_hyp_803/src/hardware/startup/boards/../../../../install/aarch64le/usr/lib\libstartup.a(ram.o)
 .qnx.srctrack  0x000000000008a2be     0x28ed C:/Users/jukken/rpi4_hyp_803/src/hardware/startup/boards/../../../../install/aarch64le/usr/lib\libstartup.a(restore_ifs.o)
 .qnx.srctrack  0x000000000008cbab     0x28e5 C:/Users/jukken/rpi4_hyp_803/src/hardware/startup/boards/../../../../install/aarch64le/usr/lib\libstartup.a(ssp.o)
 .qnx.srctrack  0x000000000008f490     0x2982 C:/Users/jukken/rpi4_hyp_803/src/hardware/startup/boards/../../../../install/aarch64le/usr/lib\libstartup.a(startnext.o)
 .qnx.srctrack  0x0000000000091e12     0x28e9 C:/Users/jukken/rpi4_hyp_803/src/hardware/startup/boards/../../../../install/aarch64le/usr/lib\libstartup.a(strings.o)
 .qnx.srctrack  0x00000000000946fb     0x28e9 C:/Users/jukken/rpi4_hyp_803/src/hardware/startup/boards/../../../../install/aarch64le/usr/lib\libstartup.a(strtoul.o)
 .qnx.srctrack  0x0000000000096fe4     0x28f0 C:/Users/jukken/rpi4_hyp_803/src/hardware/startup/boards/../../../../install/aarch64le/usr/lib\libstartup.a(syspage_memory.o)
 .qnx.srctrack  0x00000000000998d4     0x28ef C:/Users/jukken/rpi4_hyp_803/src/hardware/startup/boards/../../../../install/aarch64le/usr/lib\libstartup.a(tweak_cmdline.o)
 .qnx.srctrack  0x000000000009c1c3     0x28ec C:/Users/jukken/rpi4_hyp_803/src/hardware/startup/boards/../../../../install/aarch64le/usr/lib\libstartup.a(uncompress.o)
 .qnx.srctrack  0x000000000009eaaf     0x2a56 C:/Users/jukken/rpi4_hyp_803/src/hardware/startup/boards/../../../../install/aarch64le/usr/lib\libstartup.a(uncompress_ucl.o)
 .qnx.srctrack  0x00000000000a1505     0x28f7 C:/Users/jukken/rpi4_hyp_803/src/hardware/startup/boards/../../../../install/aarch64le/usr/lib\libstartup.a(aarch64_cpuid.o)
 .qnx.srctrack  0x00000000000a3dfc     0x28fa C:/Users/jukken/rpi4_hyp_803/src/hardware/startup/boards/../../../../install/aarch64le/usr/lib\libstartup.a(aarch64_cpuspeed.o)
 .qnx.srctrack  0x00000000000a66f6     0x29aa C:/Users/jukken/rpi4_hyp_803/src/hardware/startup/boards/../../../../install/aarch64le/usr/lib\libstartup.a(aarch64_map.o)
 .qnx.srctrack  0x00000000000a90a0     0x28eb C:/Users/jukken/rpi4_hyp_803/src/hardware/startup/boards/../../../../install/aarch64le/usr/lib\libstartup.a(add_cache.o)
 .qnx.srctrack  0x00000000000ab98b     0x28ed C:/Users/jukken/rpi4_hyp_803/src/hardware/startup/boards/../../../../install/aarch64le/usr/lib\libstartup.a(alloc_qtime.o)
 .qnx.srctrack  0x00000000000ae278     0x28e9 C:/Users/jukken/rpi4_hyp_803/src/hardware/startup/boards/../../../../install/aarch64le/usr/lib\libstartup.a(ap_fail.o)
 .qnx.srctrack  0x00000000000b0b61     0x28e8 C:/Users/jukken/rpi4_hyp_803/src/hardware/startup/boards/../../../../install/aarch64le/usr/lib\libstartup.a(as_add.o)
 .qnx.srctrack  0x00000000000b3449     0x28ea C:/Users/jukken/rpi4_hyp_803/src/hardware/startup/boards/../../../../install/aarch64le/usr/lib\libstartup.a(as_add64.o)
 .qnx.srctrack  0x00000000000b5d33     0x28f4 C:/Users/jukken/rpi4_hyp_803/src/hardware/startup/boards/../../../../install/aarch64le/usr/lib\libstartup.a(as_default.o)
 .qnx.srctrack  0x00000000000b8627     0x28e9 C:/Users/jukken/rpi4_hyp_803/src/hardware/startup/boards/../../../../install/aarch64le/usr/lib\libstartup.a(as_find.o)
 .qnx.srctrack  0x00000000000baf10     0x28f6 C:/Users/jukken/rpi4_hyp_803/src/hardware/startup/boards/../../../../install/aarch64le/usr/lib\libstartup.a(board_sysctl.o)
 .qnx.srctrack  0x00000000000bd806     0x28f3 C:/Users/jukken/rpi4_hyp_803/src/hardware/startup/boards/../../../../install/aarch64le/usr/lib\libstartup.a(boot_regs.o)
 .qnx.srctrack  0x00000000000c00f9     0x28f7 C:/Users/jukken/rpi4_hyp_803/src/hardware/startup/boards/../../../../install/aarch64le/usr/lib\libstartup.a(cpu_startnext.o)
 .qnx.srctrack  0x00000000000c29f0     0x29b1 C:/Users/jukken/rpi4_hyp_803/src/hardware/startup/boards/../../../../install/aarch64le/usr/lib\libstartup.a(cpu_syspage_memory.o)
 .qnx.srctrack  0x00000000000c53a1     0x28f3 C:/Users/jukken/rpi4_hyp_803/src/hardware/startup/boards/../../../../install/aarch64le/usr/lib\libstartup.a(cpuid_a35.o)
 .qnx.srctrack  0x00000000000c7c94     0x28f3 C:/Users/jukken/rpi4_hyp_803/src/hardware/startup/boards/../../../../install/aarch64le/usr/lib\libstartup.a(cpuid_a53.o)
 .qnx.srctrack  0x00000000000ca587     0x28f3 C:/Users/jukken/rpi4_hyp_803/src/hardware/startup/boards/../../../../install/aarch64le/usr/lib\libstartup.a(cpuid_a55.o)
 .qnx.srctrack  0x00000000000cce7a     0x28f3 C:/Users/jukken/rpi4_hyp_803/src/hardware/startup/boards/../../../../install/aarch64le/usr/lib\libstartup.a(cpuid_a57.o)
 .qnx.srctrack  0x00000000000cf76d     0x28f3 C:/Users/jukken/rpi4_hyp_803/src/hardware/startup/boards/../../../../install/aarch64le/usr/lib\libstartup.a(cpuid_a72.o)
 .qnx.srctrack  0x00000000000d2060     0x28f4 C:/Users/jukken/rpi4_hyp_803/src/hardware/startup/boards/../../../../install/aarch64le/usr/lib\libstartup.a(cpuid_a720.o)
 .qnx.srctrack  0x00000000000d4954     0x28f3 C:/Users/jukken/rpi4_hyp_803/src/hardware/startup/boards/../../../../install/aarch64le/usr/lib\libstartup.a(cpuid_a75.o)
 .qnx.srctrack  0x00000000000d7247     0x28f3 C:/Users/jukken/rpi4_hyp_803/src/hardware/startup/boards/../../../../install/aarch64le/usr/lib\libstartup.a(cpuid_a76.o)
 .qnx.srctrack  0x00000000000d9b3a     0x28f5 C:/Users/jukken/rpi4_hyp_803/src/hardware/startup/boards/../../../../install/aarch64le/usr/lib\libstartup.a(cpuid_a78ae.o)
 .qnx.srctrack  0x00000000000dc42f     0x28f3 C:/Users/jukken/rpi4_hyp_803/src/hardware/startup/boards/../../../../install/aarch64le/usr/lib\libstartup.a(cpuid_d15.o)
 .qnx.srctrack  0x00000000000ded22     0x28f3 C:/Users/jukken/rpi4_hyp_803/src/hardware/startup/boards/../../../../install/aarch64le/usr/lib\libstartup.a(cpuid_d20.o)
 .qnx.srctrack  0x00000000000e1615     0x28f2 C:/Users/jukken/rpi4_hyp_803/src/hardware/startup/boards/../../../../install/aarch64le/usr/lib\libstartup.a(cpuid_n1.o)
 .qnx.srctrack  0x00000000000e3f07     0x28f6 C:/Users/jukken/rpi4_hyp_803/src/hardware/startup/boards/../../../../install/aarch64le/usr/lib\libstartup.a(cpuid_neo_v1.o)
 .qnx.srctrack  0x00000000000e67fd     0x28f6 C:/Users/jukken/rpi4_hyp_803/src/hardware/startup/boards/../../../../install/aarch64le/usr/lib\libstartup.a(cpuid_neo_v2.o)
 .qnx.srctrack  0x00000000000e90f3     0x28f6 C:/Users/jukken/rpi4_hyp_803/src/hardware/startup/boards/../../../../install/aarch64le/usr/lib\libstartup.a(cpuid_v8_aem.o)
 .qnx.srctrack  0x00000000000eb9e9     0x28f5 C:/Users/jukken/rpi4_hyp_803/src/hardware/startup/boards/../../../../install/aarch64le/usr/lib\libstartup.a(cpuid_v8_fm.o)
 .qnx.srctrack  0x00000000000ee2de     0x28f2 C:/Users/jukken/rpi4_hyp_803/src/hardware/startup/boards/../../../../install/aarch64le/usr/lib\libstartup.a(cpuid_x2.o)
 .qnx.srctrack  0x00000000000f0bd0     0x28f2 C:/Users/jukken/rpi4_hyp_803/src/hardware/startup/boards/../../../../install/aarch64le/usr/lib\libstartup.a(cpuid_x4.o)
 .qnx.srctrack  0x00000000000f34c2     0x28f4 C:/Users/jukken/rpi4_hyp_803/src/hardware/startup/boards/../../../../install/aarch64le/usr/lib\libstartup.a(cpuid_x925.o)
 .qnx.srctrack  0x00000000000f5db6     0x28f4 C:/Users/jukken/rpi4_hyp_803/src/hardware/startup/boards/../../../../install/aarch64le/usr/lib\libstartup.a(crash_done.o)
 .qnx.srctrack  0x00000000000f86aa     0x28f2 C:/Users/jukken/rpi4_hyp_803/src/hardware/startup/boards/../../../../install/aarch64le/usr/lib\libstartup.a(dummy_print_char.o)
 .qnx.srctrack  0x00000000000faf9c     0x28e5 C:/Users/jukken/rpi4_hyp_803/src/hardware/startup/boards/../../../../install/aarch64le/usr/lib\libstartup.a(elf.o)
 .qnx.srctrack  0x00000000000fd881     0x28e7 C:/Users/jukken/rpi4_hyp_803/src/hardware/startup/boards/../../../../install/aarch64le/usr/lib\libstartup.a(elf32.o)
 .qnx.srctrack  0x0000000000100168     0x28e7 C:/Users/jukken/rpi4_hyp_803/src/hardware/startup/boards/../../../../install/aarch64le/usr/lib\libstartup.a(elf64.o)
 .qnx.srctrack  0x0000000000102a4f     0x28f1 C:/Users/jukken/rpi4_hyp_803/src/hardware/startup/boards/../../../../install/aarch64le/usr/lib\libstartup.a(elf_map.o)
 .qnx.srctrack  0x0000000000105340     0x28f0 C:/Users/jukken/rpi4_hyp_803/src/hardware/startup/boards/../../../../install/aarch64le/usr/lib\libstartup.a(hwi_add_device.o)
 .qnx.srctrack  0x0000000000107c30     0x28ed C:/Users/jukken/rpi4_hyp_803/src/hardware/startup/boards/../../../../install/aarch64le/usr/lib\libstartup.a(hwi_default.o)
 .qnx.srctrack  0x000000000010a51d     0x28f4 C:/Users/jukken/rpi4_hyp_803/src/hardware/startup/boards/../../../../install/aarch64le/usr/lib\libstartup.a(hypervisor.o)
 .qnx.srctrack  0x000000000010ce11     0x28fd C:/Users/jukken/rpi4_hyp_803/src/hardware/startup/boards/../../../../install/aarch64le/usr/lib\libstartup.a(init_mitigation_mem.o)
 .qnx.srctrack  0x000000000010f70e     0x28f2 C:/Users/jukken/rpi4_hyp_803/src/hardware/startup/boards/../../../../install/aarch64le/usr/lib\libstartup.a(rtc_time.o)
 .qnx.srctrack  0x0000000000112000     0x28ee C:/Users/jukken/rpi4_hyp_803/src/hardware/startup/boards/../../../../install/aarch64le/usr/lib\libstartup.a(startup_info.o)
 .qnx.srctrack  0x00000000001148ee      0xd50 C:/Users/jukken/qnx803/target/qnx/aarch64le/usr/lib\libucl.a(n2b_d.o)
 .qnx.srctrack  0x000000000011563e      0x9bd C:/Users/jukken/qnx803/target/qnx/aarch64le/usr/lib\libdrvr.a(hwi_find_unit.o)
 .qnx.srctrack  0x0000000000115ffb      0x9bc C:/Users/jukken/qnx803/target/qnx/aarch64le/usr/lib\libdrvr.a(hwi_tag_find.o)
 .qnx.srctrack  0x00000000001169b7      0x9bc C:/Users/jukken/qnx803/target/qnx/aarch64le/usr/lib\libdrvr.a(hwi_find_bus.o)
 .qnx.srctrack  0x0000000000117373      0x9bf C:/Users/jukken/qnx803/target/qnx/aarch64le/usr/lib\libdrvr.a(hwi_find_device.o)
 .qnx.srctrack  0x0000000000117d32      0x9b8 C:/Users/jukken/qnx803/target/qnx/aarch64le/usr/lib\libdrvr.a(hwi_find.o)
 .qnx.srctrack  0x00000000001186ea      0xc7b C:/Users/jukken/qnx803/target/qnx/aarch64le/usr/lib\libfdt.a(fdt.o)
 .qnx.srctrack  0x0000000000119365      0xc7e C:/Users/jukken/qnx803/target/qnx/aarch64le/usr/lib\libfdt.a(fdt_ro.o)
 .qnx.srctrack  0x0000000000119fe3      0x8cc C:/Users/jukken/qnx803/target/qnx/aarch64le/lib\libc.a(hwi_find_item.o)
 .qnx.srctrack  0x000000000011a8af      0x637 C:/Users/jukken/qnx803/target/qnx/aarch64le/lib\libc.a(hwi_next_tag.o)
 .qnx.srctrack  0x000000000011aee6      0x636 C:/Users/jukken/qnx803/target/qnx/aarch64le/lib\libc.a(hwi_off2tag.o)
 .qnx.srctrack  0x000000000011b51c      0x636 C:/Users/jukken/qnx803/target/qnx/aarch64le/lib\libc.a(hwi_tag2off.o)
 .qnx.srctrack  0x000000000011bb52      0x70c C:/Users/jukken/qnx803/target/qnx/aarch64le/lib\libc.a(memchr.o)
 .qnx.srctrack  0x000000000011c25e      0x859 C:/Users/jukken/qnx803/target/qnx/aarch64le/lib\libc.a(memset.o)
 .qnx.srctrack  0x000000000011cab7      0x70c C:/Users/jukken/qnx803/target/qnx/aarch64le/lib\libc.a(strchr.o)
 .qnx.srctrack  0x000000000011d1c3      0x708 C:/Users/jukken/qnx803/target/qnx/aarch64le/lib\libc.a(strlcpy.o)
 .qnx.srctrack  0x000000000011d8cb      0x698 C:/Users/jukken/qnx803/target/qnx/aarch64le/lib\libc.a(strnlen.o)
 .qnx.srctrack  0x000000000011df63      0x698 C:/Users/jukken/qnx803/target/qnx/aarch64le/lib\libc.a(strrchr.o)
 .qnx.srctrack  0x000000000011e5fb      0x8bd C:/Users/jukken/qnx803/target/qnx/aarch64le/lib\libc.a(strtol.o)
 .qnx.srctrack  0x000000000011eeb8      0x70e C:/Users/jukken/qnx803/target/qnx/aarch64le/lib\libc.a(__progname.o)
 .qnx.srctrack  0x000000000011f5c6      0x298 C:/Users/jukken/qnx803/target/qnx/aarch64le/lib\libc.a(_ssp.o)
 .qnx.srctrack  0x000000000011f85e      0xcab C:/Users/jukken/qnx803/target/qnx/aarch64le/lib\libc.a(__stack_chk_guard.o)
 .qnx.srctrack  0x0000000000120509      0xa0b C:/Users/jukken/qnx803/target/qnx/aarch64le/lib\libc.a(getsubopt.o)
 .qnx.srctrack  0x0000000000120f14      0xa01 C:/Users/jukken/qnx803/target/qnx/aarch64le/lib\libc.a(xstoint.o)
 .qnx.srctrack  0x0000000000121915      0x698 C:/Users/jukken/qnx803/target/qnx/aarch64le/lib\libc.a(strncmp.o)
 .qnx.srctrack  0x0000000000121fad     0x14ea C:/Users/jukken/qnx803/target/qnx/aarch64le/lib\libc.a(xctype.o)

.gnu.build.attributes
 *(.gnu.build.attributes)

.debug
 *(.debug)

.line
 *(.line)

.debug_srcinfo
 *(.debug_srcinfo)

.debug_sfnames
 *(.debug_sfnames)

.debug_aranges  0x0000000000000000      0x7a0
 *(.debug_aranges)
 .debug_aranges
                0x0000000000000000       0x30 C:/Users/jukken/rpi4_hyp_803/src/hardware/startup/boards/../../../../install/aarch64le/usr/lib\libstartup.a(callout_debug_pl011.o)
 .debug_aranges
                0x0000000000000030       0x30 C:/Users/jukken/rpi4_hyp_803/src/hardware/startup/boards/../../../../install/aarch64le/usr/lib\libstartup.a(callout_sendipi_gic_v2.o)
 .debug_aranges
                0x0000000000000060       0x30 C:/Users/jukken/rpi4_hyp_803/src/hardware/startup/boards/../../../../install/aarch64le/usr/lib\libstartup.a(cstart.o)
 .debug_aranges
                0x0000000000000090       0x30 C:/Users/jukken/rpi4_hyp_803/src/hardware/startup/boards/../../../../install/aarch64le/usr/lib\libstartup.a(smp_start.o)
 .debug_aranges
                0x00000000000000c0       0x30 C:/Users/jukken/rpi4_hyp_803/src/hardware/startup/boards/../../../../install/aarch64le/usr/lib\libstartup.a(vbar_default.o)
 .debug_aranges
                0x00000000000000f0       0x30 C:/Users/jukken/rpi4_hyp_803/src/hardware/startup/boards/../../../../install/aarch64le/usr/lib\libstartup.a(_start_el1.o)
 .debug_aranges
                0x0000000000000120       0x30 C:/Users/jukken/rpi4_hyp_803/src/hardware/startup/boards/../../../../install/aarch64le/usr/lib\libstartup.a(aarch64_cache_flush.o)
 .debug_aranges
                0x0000000000000150       0x30 C:/Users/jukken/rpi4_hyp_803/src/hardware/startup/boards/../../../../install/aarch64le/usr/lib\libstartup.a(callout_cache_armv8.o)
 .debug_aranges
                0x0000000000000180       0x30 C:/Users/jukken/rpi4_hyp_803/src/hardware/startup/boards/../../../../install/aarch64le/usr/lib\libstartup.a(callout_interrupt_gic_v2.o)
 .debug_aranges
                0x00000000000001b0       0x30 C:/Users/jukken/rpi4_hyp_803/src/hardware/startup/boards/../../../../install/aarch64le/usr/lib\libstartup.a(callout_smp_spin.o)
 .debug_aranges
                0x00000000000001e0       0x30 C:/Users/jukken/rpi4_hyp_803/src/hardware/startup/boards/../../../../install/aarch64le/usr/lib\libstartup.a(hypervisor_enable.o)
 .debug_aranges
                0x0000000000000210       0x30 C:/Users/jukken/rpi4_hyp_803/src/hardware/startup/boards/../../../../install/aarch64le/usr/lib\libstartup.a(vstart.o)
 .debug_aranges
                0x0000000000000240       0x30 C:/Users/jukken/qnx803/target/qnx/aarch64le/usr/lib\libucl.a(n2b_d.o)
 .debug_aranges
                0x0000000000000270       0x30 C:/Users/jukken/qnx803/target/qnx/aarch64le/usr/lib\libdrvr.a(hwi_find_unit.o)
 .debug_aranges
                0x00000000000002a0       0x30 C:/Users/jukken/qnx803/target/qnx/aarch64le/usr/lib\libdrvr.a(hwi_tag_find.o)
 .debug_aranges
                0x00000000000002d0       0x30 C:/Users/jukken/qnx803/target/qnx/aarch64le/usr/lib\libdrvr.a(hwi_find_bus.o)
 .debug_aranges
                0x0000000000000300       0x30 C:/Users/jukken/qnx803/target/qnx/aarch64le/usr/lib\libdrvr.a(hwi_find_device.o)
 .debug_aranges
                0x0000000000000330       0x30 C:/Users/jukken/qnx803/target/qnx/aarch64le/usr/lib\libdrvr.a(hwi_find.o)
 .debug_aranges
                0x0000000000000360       0x30 C:/Users/jukken/qnx803/target/qnx/aarch64le/usr/lib\libfdt.a(fdt.o)
 .debug_aranges
                0x0000000000000390       0x30 C:/Users/jukken/qnx803/target/qnx/aarch64le/usr/lib\libfdt.a(fdt_ro.o)
 .debug_aranges
                0x00000000000003c0       0x30 C:/Users/jukken/qnx803/target/qnx/aarch64le/lib\libc.a(hwi_find_item.o)
 .debug_aranges
                0x00000000000003f0       0x30 C:/Users/jukken/qnx803/target/qnx/aarch64le/lib\libc.a(hwi_next_tag.o)
 .debug_aranges
                0x0000000000000420       0x30 C:/Users/jukken/qnx803/target/qnx/aarch64le/lib\libc.a(hwi_off2tag.o)
 .debug_aranges
                0x0000000000000450       0x30 C:/Users/jukken/qnx803/target/qnx/aarch64le/lib\libc.a(hwi_tag2off.o)
 .debug_aranges
                0x0000000000000480       0x30 C:/Users/jukken/qnx803/target/qnx/aarch64le/lib\libc.a(memchr.o)
 .debug_aranges
                0x00000000000004b0       0x30 C:/Users/jukken/qnx803/target/qnx/aarch64le/lib\libc.a(memcmp.o)
 .debug_aranges
                0x00000000000004e0       0x30 C:/Users/jukken/qnx803/target/qnx/aarch64le/lib\libc.a(memset.o)
 .debug_aranges
                0x0000000000000510       0x30 C:/Users/jukken/qnx803/target/qnx/aarch64le/lib\libc.a(strchr.o)
 .debug_aranges
                0x0000000000000540       0x30 C:/Users/jukken/qnx803/target/qnx/aarch64le/lib\libc.a(strcmp.o)
 .debug_aranges
                0x0000000000000570       0x30 C:/Users/jukken/qnx803/target/qnx/aarch64le/lib\libc.a(strlcpy.o)
 .debug_aranges
                0x00000000000005a0       0x30 C:/Users/jukken/qnx803/target/qnx/aarch64le/lib\libc.a(strlen.o)
 .debug_aranges
                0x00000000000005d0       0x30 C:/Users/jukken/qnx803/target/qnx/aarch64le/lib\libc.a(strnlen.o)
 .debug_aranges
                0x0000000000000600       0x30 C:/Users/jukken/qnx803/target/qnx/aarch64le/lib\libc.a(strrchr.o)
 .debug_aranges
                0x0000000000000630       0x30 C:/Users/jukken/qnx803/target/qnx/aarch64le/lib\libc.a(strtol.o)
 .debug_aranges
                0x0000000000000660       0x30 C:/Users/jukken/qnx803/target/qnx/aarch64le/lib\libc.a(__progname.o)
 .debug_aranges
                0x0000000000000690       0x30 C:/Users/jukken/qnx803/target/qnx/aarch64le/lib\libc.a(_ssp.o)
 .debug_aranges
                0x00000000000006c0       0x20 C:/Users/jukken/qnx803/target/qnx/aarch64le/lib\libc.a(__stack_chk_guard.o)
 .debug_aranges
                0x00000000000006e0       0x30 C:/Users/jukken/qnx803/target/qnx/aarch64le/lib\libc.a(getsubopt.o)
 .debug_aranges
                0x0000000000000710       0x30 C:/Users/jukken/qnx803/target/qnx/aarch64le/lib\libc.a(xstoint.o)
 .debug_aranges
                0x0000000000000740       0x30 C:/Users/jukken/qnx803/target/qnx/aarch64le/lib\libc.a(strncmp.o)
 .debug_aranges
                0x0000000000000770       0x30 C:/Users/jukken/qnx803/target/qnx/aarch64le/lib\libc.a(xctype.o)

.debug_pubnames
 *(.debug_pubnames)

.debug_info     0x0000000000000000     0x9ecf
 *(.debug_info)
 .debug_info    0x0000000000000000       0x2e C:/Users/jukken/rpi4_hyp_803/src/hardware/startup/boards/../../../../install/aarch64le/usr/lib\libstartup.a(callout_debug_pl011.o)
 .debug_info    0x000000000000002e       0x2e C:/Users/jukken/rpi4_hyp_803/src/hardware/startup/boards/../../../../install/aarch64le/usr/lib\libstartup.a(callout_sendipi_gic_v2.o)
 .debug_info    0x000000000000005c       0x2e C:/Users/jukken/rpi4_hyp_803/src/hardware/startup/boards/../../../../install/aarch64le/usr/lib\libstartup.a(cstart.o)
 .debug_info    0x000000000000008a       0x2e C:/Users/jukken/rpi4_hyp_803/src/hardware/startup/boards/../../../../install/aarch64le/usr/lib\libstartup.a(smp_start.o)
 .debug_info    0x00000000000000b8       0x2e C:/Users/jukken/rpi4_hyp_803/src/hardware/startup/boards/../../../../install/aarch64le/usr/lib\libstartup.a(vbar_default.o)
 .debug_info    0x00000000000000e6       0x2e C:/Users/jukken/rpi4_hyp_803/src/hardware/startup/boards/../../../../install/aarch64le/usr/lib\libstartup.a(_start_el1.o)
 .debug_info    0x0000000000000114       0x2e C:/Users/jukken/rpi4_hyp_803/src/hardware/startup/boards/../../../../install/aarch64le/usr/lib\libstartup.a(aarch64_cache_flush.o)
 .debug_info    0x0000000000000142       0x2e C:/Users/jukken/rpi4_hyp_803/src/hardware/startup/boards/../../../../install/aarch64le/usr/lib\libstartup.a(callout_cache_armv8.o)
 .debug_info    0x0000000000000170       0x2e C:/Users/jukken/rpi4_hyp_803/src/hardware/startup/boards/../../../../install/aarch64le/usr/lib\libstartup.a(callout_interrupt_gic_v2.o)
 .debug_info    0x000000000000019e       0x2e C:/Users/jukken/rpi4_hyp_803/src/hardware/startup/boards/../../../../install/aarch64le/usr/lib\libstartup.a(callout_smp_spin.o)
 .debug_info    0x00000000000001cc       0x2e C:/Users/jukken/rpi4_hyp_803/src/hardware/startup/boards/../../../../install/aarch64le/usr/lib\libstartup.a(hypervisor_enable.o)
 .debug_info    0x00000000000001fa       0x2e C:/Users/jukken/rpi4_hyp_803/src/hardware/startup/boards/../../../../install/aarch64le/usr/lib\libstartup.a(vstart.o)
 .debug_info    0x0000000000000228      0x402 C:/Users/jukken/qnx803/target/qnx/aarch64le/usr/lib\libucl.a(n2b_d.o)
 .debug_info    0x000000000000062a      0x929 C:/Users/jukken/qnx803/target/qnx/aarch64le/usr/lib\libdrvr.a(hwi_find_unit.o)
 .debug_info    0x0000000000000f53      0x8ea C:/Users/jukken/qnx803/target/qnx/aarch64le/usr/lib\libdrvr.a(hwi_tag_find.o)
 .debug_info    0x000000000000183d      0x8a2 C:/Users/jukken/qnx803/target/qnx/aarch64le/usr/lib\libdrvr.a(hwi_find_bus.o)
 .debug_info    0x00000000000020df      0x8a2 C:/Users/jukken/qnx803/target/qnx/aarch64le/usr/lib\libdrvr.a(hwi_find_device.o)
 .debug_info    0x0000000000002981      0x92c C:/Users/jukken/qnx803/target/qnx/aarch64le/usr/lib\libdrvr.a(hwi_find.o)
 .debug_info    0x00000000000032ad      0xf44 C:/Users/jukken/qnx803/target/qnx/aarch64le/usr/lib\libfdt.a(fdt.o)
 .debug_info    0x00000000000041f1     0x339e C:/Users/jukken/qnx803/target/qnx/aarch64le/usr/lib\libfdt.a(fdt_ro.o)
 .debug_info    0x000000000000758f      0xaf8 C:/Users/jukken/qnx803/target/qnx/aarch64le/lib\libc.a(hwi_find_item.o)
 .debug_info    0x0000000000008087      0x872 C:/Users/jukken/qnx803/target/qnx/aarch64le/lib\libc.a(hwi_next_tag.o)
 .debug_info    0x00000000000088f9       0xef C:/Users/jukken/qnx803/target/qnx/aarch64le/lib\libc.a(hwi_off2tag.o)
 .debug_info    0x00000000000089e8       0xfb C:/Users/jukken/qnx803/target/qnx/aarch64le/lib\libc.a(hwi_tag2off.o)
 .debug_info    0x0000000000008ae3      0x135 C:/Users/jukken/qnx803/target/qnx/aarch64le/lib\libc.a(memchr.o)
 .debug_info    0x0000000000008c18       0x5b C:/Users/jukken/qnx803/target/qnx/aarch64le/lib\libc.a(memcmp.o)
 .debug_info    0x0000000000008c73      0x1e9 C:/Users/jukken/qnx803/target/qnx/aarch64le/lib\libc.a(memset.o)
 .debug_info    0x0000000000008e5c       0xe6 C:/Users/jukken/qnx803/target/qnx/aarch64le/lib\libc.a(strchr.o)
 .debug_info    0x0000000000008f42       0x5b C:/Users/jukken/qnx803/target/qnx/aarch64le/lib\libc.a(strcmp.o)
 .debug_info    0x0000000000008f9d      0x14a C:/Users/jukken/qnx803/target/qnx/aarch64le/lib\libc.a(strlcpy.o)
 .debug_info    0x00000000000090e7       0x5b C:/Users/jukken/qnx803/target/qnx/aarch64le/lib\libc.a(strlen.o)
 .debug_info    0x0000000000009142      0x125 C:/Users/jukken/qnx803/target/qnx/aarch64le/lib\libc.a(strnlen.o)
 .debug_info    0x0000000000009267       0xf9 C:/Users/jukken/qnx803/target/qnx/aarch64le/lib\libc.a(strrchr.o)
 .debug_info    0x0000000000009360      0x14f C:/Users/jukken/qnx803/target/qnx/aarch64le/lib\libc.a(strtol.o)
 .debug_info    0x00000000000094af      0x147 C:/Users/jukken/qnx803/target/qnx/aarch64le/lib\libc.a(__progname.o)
 .debug_info    0x00000000000095f6      0x1e0 C:/Users/jukken/qnx803/target/qnx/aarch64le/lib\libc.a(_ssp.o)
 .debug_info    0x00000000000097d6       0x8b C:/Users/jukken/qnx803/target/qnx/aarch64le/lib\libc.a(__stack_chk_guard.o)
 .debug_info    0x0000000000009861      0x1c7 C:/Users/jukken/qnx803/target/qnx/aarch64le/lib\libc.a(getsubopt.o)
 .debug_info    0x0000000000009a28      0x273 C:/Users/jukken/qnx803/target/qnx/aarch64le/lib\libc.a(xstoint.o)
 .debug_info    0x0000000000009c9b      0x113 C:/Users/jukken/qnx803/target/qnx/aarch64le/lib\libc.a(strncmp.o)
 .debug_info    0x0000000000009dae      0x121 C:/Users/jukken/qnx803/target/qnx/aarch64le/lib\libc.a(xctype.o)

.debug_abbrev   0x0000000000000000     0x233e
 *(.debug_abbrev)
 .debug_abbrev  0x0000000000000000       0x14 C:/Users/jukken/rpi4_hyp_803/src/hardware/startup/boards/../../../../install/aarch64le/usr/lib\libstartup.a(callout_debug_pl011.o)
 .debug_abbrev  0x0000000000000014       0x14 C:/Users/jukken/rpi4_hyp_803/src/hardware/startup/boards/../../../../install/aarch64le/usr/lib\libstartup.a(callout_sendipi_gic_v2.o)
 .debug_abbrev  0x0000000000000028       0x14 C:/Users/jukken/rpi4_hyp_803/src/hardware/startup/boards/../../../../install/aarch64le/usr/lib\libstartup.a(cstart.o)
 .debug_abbrev  0x000000000000003c       0x14 C:/Users/jukken/rpi4_hyp_803/src/hardware/startup/boards/../../../../install/aarch64le/usr/lib\libstartup.a(smp_start.o)
 .debug_abbrev  0x0000000000000050       0x14 C:/Users/jukken/rpi4_hyp_803/src/hardware/startup/boards/../../../../install/aarch64le/usr/lib\libstartup.a(vbar_default.o)
 .debug_abbrev  0x0000000000000064       0x14 C:/Users/jukken/rpi4_hyp_803/src/hardware/startup/boards/../../../../install/aarch64le/usr/lib\libstartup.a(_start_el1.o)
 .debug_abbrev  0x0000000000000078       0x14 C:/Users/jukken/rpi4_hyp_803/src/hardware/startup/boards/../../../../install/aarch64le/usr/lib\libstartup.a(aarch64_cache_flush.o)
 .debug_abbrev  0x000000000000008c       0x14 C:/Users/jukken/rpi4_hyp_803/src/hardware/startup/boards/../../../../install/aarch64le/usr/lib\libstartup.a(callout_cache_armv8.o)
 .debug_abbrev  0x00000000000000a0       0x14 C:/Users/jukken/rpi4_hyp_803/src/hardware/startup/boards/../../../../install/aarch64le/usr/lib\libstartup.a(callout_interrupt_gic_v2.o)
 .debug_abbrev  0x00000000000000b4       0x14 C:/Users/jukken/rpi4_hyp_803/src/hardware/startup/boards/../../../../install/aarch64le/usr/lib\libstartup.a(callout_smp_spin.o)
 .debug_abbrev  0x00000000000000c8       0x14 C:/Users/jukken/rpi4_hyp_803/src/hardware/startup/boards/../../../../install/aarch64le/usr/lib\libstartup.a(hypervisor_enable.o)
 .debug_abbrev  0x00000000000000dc       0x14 C:/Users/jukken/rpi4_hyp_803/src/hardware/startup/boards/../../../../install/aarch64le/usr/lib\libstartup.a(vstart.o)
 .debug_abbrev  0x00000000000000f0      0x119 C:/Users/jukken/qnx803/target/qnx/aarch64le/usr/lib\libucl.a(n2b_d.o)
 .debug_abbrev  0x0000000000000209      0x1ce C:/Users/jukken/qnx803/target/qnx/aarch64le/usr/lib\libdrvr.a(hwi_find_unit.o)
 .debug_abbrev  0x00000000000003d7      0x1f0 C:/Users/jukken/qnx803/target/qnx/aarch64le/usr/lib\libdrvr.a(hwi_tag_find.o)
 .debug_abbrev  0x00000000000005c7      0x1d3 C:/Users/jukken/qnx803/target/qnx/aarch64le/usr/lib\libdrvr.a(hwi_find_bus.o)
 .debug_abbrev  0x000000000000079a      0x1d3 C:/Users/jukken/qnx803/target/qnx/aarch64le/usr/lib\libdrvr.a(hwi_find_device.o)
 .debug_abbrev  0x000000000000096d      0x25d C:/Users/jukken/qnx803/target/qnx/aarch64le/usr/lib\libdrvr.a(hwi_find.o)
 .debug_abbrev  0x0000000000000bca      0x33c C:/Users/jukken/qnx803/target/qnx/aarch64le/usr/lib\libfdt.a(fdt.o)
 .debug_abbrev  0x0000000000000f06      0x4b0 C:/Users/jukken/qnx803/target/qnx/aarch64le/usr/lib\libfdt.a(fdt_ro.o)
 .debug_abbrev  0x00000000000013b6      0x2c4 C:/Users/jukken/qnx803/target/qnx/aarch64le/lib\libc.a(hwi_find_item.o)
 .debug_abbrev  0x000000000000167a      0x1b3 C:/Users/jukken/qnx803/target/qnx/aarch64le/lib\libc.a(hwi_next_tag.o)
 .debug_abbrev  0x000000000000182d       0x8d C:/Users/jukken/qnx803/target/qnx/aarch64le/lib\libc.a(hwi_off2tag.o)
 .debug_abbrev  0x00000000000018ba       0x8d C:/Users/jukken/qnx803/target/qnx/aarch64le/lib\libc.a(hwi_tag2off.o)
 .debug_abbrev  0x0000000000001947       0x9e C:/Users/jukken/qnx803/target/qnx/aarch64le/lib\libc.a(memchr.o)
 .debug_abbrev  0x00000000000019e5       0x21 C:/Users/jukken/qnx803/target/qnx/aarch64le/lib\libc.a(memcmp.o)
 .debug_abbrev  0x0000000000001a06      0x10c C:/Users/jukken/qnx803/target/qnx/aarch64le/lib\libc.a(memset.o)
 .debug_abbrev  0x0000000000001b12       0x91 C:/Users/jukken/qnx803/target/qnx/aarch64le/lib\libc.a(strchr.o)
 .debug_abbrev  0x0000000000001ba3       0x21 C:/Users/jukken/qnx803/target/qnx/aarch64le/lib\libc.a(strcmp.o)
 .debug_abbrev  0x0000000000001bc4       0xa3 C:/Users/jukken/qnx803/target/qnx/aarch64le/lib\libc.a(strlcpy.o)
 .debug_abbrev  0x0000000000001c67       0x21 C:/Users/jukken/qnx803/target/qnx/aarch64le/lib\libc.a(strlen.o)
 .debug_abbrev  0x0000000000001c88       0xa2 C:/Users/jukken/qnx803/target/qnx/aarch64le/lib\libc.a(strnlen.o)
 .debug_abbrev  0x0000000000001d2a       0x83 C:/Users/jukken/qnx803/target/qnx/aarch64le/lib\libc.a(strrchr.o)
 .debug_abbrev  0x0000000000001dad       0xc9 C:/Users/jukken/qnx803/target/qnx/aarch64le/lib\libc.a(strtol.o)
 .debug_abbrev  0x0000000000001e76       0xdc C:/Users/jukken/qnx803/target/qnx/aarch64le/lib\libc.a(__progname.o)
 .debug_abbrev  0x0000000000001f52       0x9c C:/Users/jukken/qnx803/target/qnx/aarch64le/lib\libc.a(_ssp.o)
 .debug_abbrev  0x0000000000001fee       0x40 C:/Users/jukken/qnx803/target/qnx/aarch64le/lib\libc.a(__stack_chk_guard.o)
 .debug_abbrev  0x000000000000202e       0xd7 C:/Users/jukken/qnx803/target/qnx/aarch64le/lib\libc.a(getsubopt.o)
 .debug_abbrev  0x0000000000002105       0xf7 C:/Users/jukken/qnx803/target/qnx/aarch64le/lib\libc.a(xstoint.o)
 .debug_abbrev  0x00000000000021fc       0x7c C:/Users/jukken/qnx803/target/qnx/aarch64le/lib\libc.a(strncmp.o)
 .debug_abbrev  0x0000000000002278       0xc6 C:/Users/jukken/qnx803/target/qnx/aarch64le/lib\libc.a(xctype.o)

.debug_line     0x0000000000000000     0x43c6
 *(.debug_line)
 .debug_line    0x0000000000000000       0xc8 C:/Users/jukken/rpi4_hyp_803/src/hardware/startup/boards/../../../../install/aarch64le/usr/lib\libstartup.a(callout_debug_pl011.o)
 .debug_line    0x00000000000000c8       0xb7 C:/Users/jukken/rpi4_hyp_803/src/hardware/startup/boards/../../../../install/aarch64le/usr/lib\libstartup.a(callout_sendipi_gic_v2.o)
 .debug_line    0x000000000000017f       0x9d C:/Users/jukken/rpi4_hyp_803/src/hardware/startup/boards/../../../../install/aarch64le/usr/lib\libstartup.a(cstart.o)
 .debug_line    0x000000000000021c       0xaf C:/Users/jukken/rpi4_hyp_803/src/hardware/startup/boards/../../../../install/aarch64le/usr/lib\libstartup.a(smp_start.o)
 .debug_line    0x00000000000002cb       0xb5 C:/Users/jukken/rpi4_hyp_803/src/hardware/startup/boards/../../../../install/aarch64le/usr/lib\libstartup.a(vbar_default.o)
 .debug_line    0x0000000000000380       0xf9 C:/Users/jukken/rpi4_hyp_803/src/hardware/startup/boards/../../../../install/aarch64le/usr/lib\libstartup.a(_start_el1.o)
 .debug_line    0x0000000000000479       0xc1 C:/Users/jukken/rpi4_hyp_803/src/hardware/startup/boards/../../../../install/aarch64le/usr/lib\libstartup.a(aarch64_cache_flush.o)
 .debug_line    0x000000000000053a       0xc9 C:/Users/jukken/rpi4_hyp_803/src/hardware/startup/boards/../../../../install/aarch64le/usr/lib\libstartup.a(callout_cache_armv8.o)
 .debug_line    0x0000000000000603      0x106 C:/Users/jukken/rpi4_hyp_803/src/hardware/startup/boards/../../../../install/aarch64le/usr/lib\libstartup.a(callout_interrupt_gic_v2.o)
 .debug_line    0x0000000000000709       0xaf C:/Users/jukken/rpi4_hyp_803/src/hardware/startup/boards/../../../../install/aarch64le/usr/lib\libstartup.a(callout_smp_spin.o)
 .debug_line    0x00000000000007b8       0xa9 C:/Users/jukken/rpi4_hyp_803/src/hardware/startup/boards/../../../../install/aarch64le/usr/lib\libstartup.a(hypervisor_enable.o)
 .debug_line    0x0000000000000861       0xa7 C:/Users/jukken/rpi4_hyp_803/src/hardware/startup/boards/../../../../install/aarch64le/usr/lib\libstartup.a(vstart.o)
 .debug_line    0x0000000000000908      0x999 C:/Users/jukken/qnx803/target/qnx/aarch64le/usr/lib\libucl.a(n2b_d.o)
 .debug_line    0x00000000000012a1      0x145 C:/Users/jukken/qnx803/target/qnx/aarch64le/usr/lib\libdrvr.a(hwi_find_unit.o)
 .debug_line    0x00000000000013e6       0xf4 C:/Users/jukken/qnx803/target/qnx/aarch64le/usr/lib\libdrvr.a(hwi_tag_find.o)
 .debug_line    0x00000000000014da       0xb3 C:/Users/jukken/qnx803/target/qnx/aarch64le/usr/lib\libdrvr.a(hwi_find_bus.o)
 .debug_line    0x000000000000158d       0xb3 C:/Users/jukken/qnx803/target/qnx/aarch64le/usr/lib\libdrvr.a(hwi_find_device.o)
 .debug_line    0x0000000000001640      0x11e C:/Users/jukken/qnx803/target/qnx/aarch64le/usr/lib\libdrvr.a(hwi_find.o)
 .debug_line    0x000000000000175e      0x6a3 C:/Users/jukken/qnx803/target/qnx/aarch64le/usr/lib\libfdt.a(fdt.o)
 .debug_line    0x0000000000001e01     0x13a5 C:/Users/jukken/qnx803/target/qnx/aarch64le/usr/lib\libfdt.a(fdt_ro.o)
 .debug_line    0x00000000000031a6      0x1d6 C:/Users/jukken/qnx803/target/qnx/aarch64le/lib\libc.a(hwi_find_item.o)
 .debug_line    0x000000000000337c       0xb2 C:/Users/jukken/qnx803/target/qnx/aarch64le/lib\libc.a(hwi_next_tag.o)
 .debug_line    0x000000000000342e       0x79 C:/Users/jukken/qnx803/target/qnx/aarch64le/lib\libc.a(hwi_off2tag.o)
 .debug_line    0x00000000000034a7       0x79 C:/Users/jukken/qnx803/target/qnx/aarch64le/lib\libc.a(hwi_tag2off.o)
 .debug_line    0x0000000000003520       0x89 C:/Users/jukken/qnx803/target/qnx/aarch64le/lib\libc.a(memchr.o)
 .debug_line    0x00000000000035a9       0xda C:/Users/jukken/qnx803/target/qnx/aarch64le/lib\libc.a(memcmp.o)
 .debug_line    0x0000000000003683      0x125 C:/Users/jukken/qnx803/target/qnx/aarch64le/lib\libc.a(memset.o)
 .debug_line    0x00000000000037a8       0x7a C:/Users/jukken/qnx803/target/qnx/aarch64le/lib\libc.a(strchr.o)
 .debug_line    0x0000000000003822       0xa3 C:/Users/jukken/qnx803/target/qnx/aarch64le/lib\libc.a(strcmp.o)
 .debug_line    0x00000000000038c5       0xd2 C:/Users/jukken/qnx803/target/qnx/aarch64le/lib\libc.a(strlcpy.o)
 .debug_line    0x0000000000003997       0xe8 C:/Users/jukken/qnx803/target/qnx/aarch64le/lib\libc.a(strlen.o)
 .debug_line    0x0000000000003a7f       0x93 C:/Users/jukken/qnx803/target/qnx/aarch64le/lib\libc.a(strnlen.o)
 .debug_line    0x0000000000003b12       0x7d C:/Users/jukken/qnx803/target/qnx/aarch64le/lib\libc.a(strrchr.o)
 .debug_line    0x0000000000003b8f       0x63 C:/Users/jukken/qnx803/target/qnx/aarch64le/lib\libc.a(strtol.o)
 .debug_line    0x0000000000003bf2       0x86 C:/Users/jukken/qnx803/target/qnx/aarch64le/lib\libc.a(__progname.o)
 .debug_line    0x0000000000003c78       0xe0 C:/Users/jukken/qnx803/target/qnx/aarch64le/lib\libc.a(_ssp.o)
 .debug_line    0x0000000000003d58       0x3a C:/Users/jukken/qnx803/target/qnx/aarch64le/lib\libc.a(__stack_chk_guard.o)
 .debug_line    0x0000000000003d92      0x15d C:/Users/jukken/qnx803/target/qnx/aarch64le/lib\libc.a(getsubopt.o)
 .debug_line    0x0000000000003eef      0x3c6 C:/Users/jukken/qnx803/target/qnx/aarch64le/lib\libc.a(xstoint.o)
 .debug_line    0x00000000000042b5       0x92 C:/Users/jukken/qnx803/target/qnx/aarch64le/lib\libc.a(strncmp.o)
 .debug_line    0x0000000000004347       0x7f C:/Users/jukken/qnx803/target/qnx/aarch64le/lib\libc.a(xctype.o)

.debug_frame
 *(.debug_frame)

.debug_str      0x0000000000000000     0x8b94
 *(.debug_str)
 .debug_str     0x0000000000000000       0xd7 C:/Users/jukken/rpi4_hyp_803/src/hardware/startup/boards/../../../../install/aarch64le/usr/lib\libstartup.a(callout_debug_pl011.o)
 .debug_str     0x00000000000000d7       0xda C:/Users/jukken/rpi4_hyp_803/src/hardware/startup/boards/../../../../install/aarch64le/usr/lib\libstartup.a(callout_sendipi_gic_v2.o)
 .debug_str     0x00000000000001b1       0xca C:/Users/jukken/rpi4_hyp_803/src/hardware/startup/boards/../../../../install/aarch64le/usr/lib\libstartup.a(cstart.o)
 .debug_str     0x000000000000027b       0xcd C:/Users/jukken/rpi4_hyp_803/src/hardware/startup/boards/../../../../install/aarch64le/usr/lib\libstartup.a(smp_start.o)
 .debug_str     0x0000000000000348       0xd0 C:/Users/jukken/rpi4_hyp_803/src/hardware/startup/boards/../../../../install/aarch64le/usr/lib\libstartup.a(vbar_default.o)
 .debug_str     0x0000000000000418       0xce C:/Users/jukken/rpi4_hyp_803/src/hardware/startup/boards/../../../../install/aarch64le/usr/lib\libstartup.a(_start_el1.o)
 .debug_str     0x00000000000004e6       0xd7 C:/Users/jukken/rpi4_hyp_803/src/hardware/startup/boards/../../../../install/aarch64le/usr/lib\libstartup.a(aarch64_cache_flush.o)
 .debug_str     0x00000000000005bd       0xd7 C:/Users/jukken/rpi4_hyp_803/src/hardware/startup/boards/../../../../install/aarch64le/usr/lib\libstartup.a(callout_cache_armv8.o)
 .debug_str     0x0000000000000694       0xdc C:/Users/jukken/rpi4_hyp_803/src/hardware/startup/boards/../../../../install/aarch64le/usr/lib\libstartup.a(callout_interrupt_gic_v2.o)
 .debug_str     0x0000000000000770       0xd4 C:/Users/jukken/rpi4_hyp_803/src/hardware/startup/boards/../../../../install/aarch64le/usr/lib\libstartup.a(callout_smp_spin.o)
 .debug_str     0x0000000000000844       0xd5 C:/Users/jukken/rpi4_hyp_803/src/hardware/startup/boards/../../../../install/aarch64le/usr/lib\libstartup.a(hypervisor_enable.o)
 .debug_str     0x0000000000000919       0xca C:/Users/jukken/rpi4_hyp_803/src/hardware/startup/boards/../../../../install/aarch64le/usr/lib\libstartup.a(vstart.o)
 .debug_str     0x00000000000009e3      0x398 C:/Users/jukken/qnx803/target/qnx/aarch64le/usr/lib\libucl.a(n2b_d.o)
 .debug_str     0x0000000000000d7b      0x688 C:/Users/jukken/qnx803/target/qnx/aarch64le/usr/lib\libdrvr.a(hwi_find_unit.o)
 .debug_str     0x0000000000001403      0x694 C:/Users/jukken/qnx803/target/qnx/aarch64le/usr/lib\libdrvr.a(hwi_tag_find.o)
 .debug_str     0x0000000000001a97      0x662 C:/Users/jukken/qnx803/target/qnx/aarch64le/usr/lib\libdrvr.a(hwi_find_bus.o)
 .debug_str     0x00000000000020f9      0x665 C:/Users/jukken/qnx803/target/qnx/aarch64le/usr/lib\libdrvr.a(hwi_find_device.o)
 .debug_str     0x000000000000275e      0x68b C:/Users/jukken/qnx803/target/qnx/aarch64le/usr/lib\libdrvr.a(hwi_find.o)
 .debug_str     0x0000000000002de9      0x6fd C:/Users/jukken/qnx803/target/qnx/aarch64le/usr/lib\libfdt.a(fdt.o)
 .debug_str     0x00000000000034e6      0xb07 C:/Users/jukken/qnx803/target/qnx/aarch64le/usr/lib\libfdt.a(fdt_ro.o)
 .debug_str     0x0000000000003fed      0x878 C:/Users/jukken/qnx803/target/qnx/aarch64le/lib\libc.a(hwi_find_item.o)
 .debug_str     0x0000000000004865      0x770 C:/Users/jukken/qnx803/target/qnx/aarch64le/lib\libc.a(hwi_next_tag.o)
 .debug_str     0x0000000000004fd5      0x39c C:/Users/jukken/qnx803/target/qnx/aarch64le/lib\libc.a(hwi_off2tag.o)
 .debug_str     0x0000000000005371      0x3aa C:/Users/jukken/qnx803/target/qnx/aarch64le/lib\libc.a(hwi_tag2off.o)
 .debug_str     0x000000000000571b      0x394 C:/Users/jukken/qnx803/target/qnx/aarch64le/lib\libc.a(memchr.o)
 .debug_str     0x0000000000005aaf       0xac C:/Users/jukken/qnx803/target/qnx/aarch64le/lib\libc.a(memcmp.o)
 .debug_str     0x0000000000005b5b      0x3b1 C:/Users/jukken/qnx803/target/qnx/aarch64le/lib\libc.a(memset.o)
 .debug_str     0x0000000000005f0c      0x36d C:/Users/jukken/qnx803/target/qnx/aarch64le/lib\libc.a(strchr.o)
 .debug_str     0x0000000000006279       0xac C:/Users/jukken/qnx803/target/qnx/aarch64le/lib\libc.a(strcmp.o)
 .debug_str     0x0000000000006325      0x39a C:/Users/jukken/qnx803/target/qnx/aarch64le/lib\libc.a(strlcpy.o)
 .debug_str     0x00000000000066bf       0xac C:/Users/jukken/qnx803/target/qnx/aarch64le/lib\libc.a(strlen.o)
 .debug_str     0x000000000000676b      0x3a1 C:/Users/jukken/qnx803/target/qnx/aarch64le/lib\libc.a(strnlen.o)
 .debug_str     0x0000000000006b0c      0x36e C:/Users/jukken/qnx803/target/qnx/aarch64le/lib\libc.a(strrchr.o)
 .debug_str     0x0000000000006e7a      0x38c C:/Users/jukken/qnx803/target/qnx/aarch64le/lib\libc.a(strtol.o)
 .debug_str     0x0000000000007206      0x396 C:/Users/jukken/qnx803/target/qnx/aarch64le/lib\libc.a(__progname.o)
 .debug_str     0x000000000000759c      0x382 C:/Users/jukken/qnx803/target/qnx/aarch64le/lib\libc.a(_ssp.o)
 .debug_str     0x000000000000791e      0x378 C:/Users/jukken/qnx803/target/qnx/aarch64le/lib\libc.a(__stack_chk_guard.o)
 .debug_str     0x0000000000007c96      0x3c6 C:/Users/jukken/qnx803/target/qnx/aarch64le/lib\libc.a(getsubopt.o)
 .debug_str     0x000000000000805c      0x402 C:/Users/jukken/qnx803/target/qnx/aarch64le/lib\libc.a(xstoint.o)
 .debug_str     0x000000000000845e      0x39a C:/Users/jukken/qnx803/target/qnx/aarch64le/lib\libc.a(strncmp.o)
 .debug_str     0x00000000000087f8      0x39c C:/Users/jukken/qnx803/target/qnx/aarch64le/lib\libc.a(xctype.o)

.debug_loc
 *(.debug_loc)

.debug_macinfo
 *(.debug_macinfo)

.debug_weaknames
 *(.debug_weaknames)

.debug_funcnames
 *(.debug_funcnames)

.debug_typenames
 *(.debug_typenames)

.debug_varnames
 *(.debug_varnames)

.debug_pubtypes
 *(.debug_pubtypes)

.debug_ranges
 *(.debug_ranges)

.debug_addr
 *(.debug_addr)

.debug_line_str
                0x0000000000000000     0x2bf1
 *(.debug_line_str)
 .debug_line_str
                0x0000000000000000      0x149 C:/Users/jukken/qnx803/target/qnx/aarch64le/usr/lib\libucl.a(n2b_d.o)
 .debug_line_str
                0x0000000000000149      0x240 C:/Users/jukken/qnx803/target/qnx/aarch64le/usr/lib\libdrvr.a(hwi_find_unit.o)
 .debug_line_str
                0x0000000000000389      0x1f1 C:/Users/jukken/qnx803/target/qnx/aarch64le/usr/lib\libdrvr.a(hwi_tag_find.o)
 .debug_line_str
                0x000000000000057a      0x23d C:/Users/jukken/qnx803/target/qnx/aarch64le/usr/lib\libdrvr.a(hwi_find_bus.o)
 .debug_line_str
                0x00000000000007b7      0x246 C:/Users/jukken/qnx803/target/qnx/aarch64le/usr/lib\libdrvr.a(hwi_find_device.o)
 .debug_line_str
                0x00000000000009fd      0x1e5 C:/Users/jukken/qnx803/target/qnx/aarch64le/usr/lib\libdrvr.a(hwi_find.o)
 .debug_line_str
                0x0000000000000be2      0x208 C:/Users/jukken/qnx803/target/qnx/aarch64le/usr/lib\libfdt.a(fdt.o)
 .debug_line_str
                0x0000000000000dea      0x211 C:/Users/jukken/qnx803/target/qnx/aarch64le/usr/lib\libfdt.a(fdt_ro.o)
 .debug_line_str
                0x0000000000000ffb      0x224 C:/Users/jukken/qnx803/target/qnx/aarch64le/lib\libc.a(hwi_find_item.o)
 .debug_line_str
                0x000000000000121f      0x1bb C:/Users/jukken/qnx803/target/qnx/aarch64le/lib\libc.a(hwi_next_tag.o)
 .debug_line_str
                0x00000000000013da      0x1f8 C:/Users/jukken/qnx803/target/qnx/aarch64le/lib\libc.a(hwi_off2tag.o)
 .debug_line_str
                0x00000000000015d2      0x1f8 C:/Users/jukken/qnx803/target/qnx/aarch64le/lib\libc.a(hwi_tag2off.o)
 .debug_line_str
                0x00000000000017ca      0x19b C:/Users/jukken/qnx803/target/qnx/aarch64le/lib\libc.a(memchr.o)
 .debug_line_str
                0x0000000000001965      0x1b1 C:/Users/jukken/qnx803/target/qnx/aarch64le/lib\libc.a(memset.o)
 .debug_line_str
                0x0000000000001b16      0x111 C:/Users/jukken/qnx803/target/qnx/aarch64le/lib\libc.a(strchr.o)
 .debug_line_str
                0x0000000000001c27      0x166 C:/Users/jukken/qnx803/target/qnx/aarch64le/lib\libc.a(strlcpy.o)
 .debug_line_str
                0x0000000000001d8d      0x19e C:/Users/jukken/qnx803/target/qnx/aarch64le/lib\libc.a(strnlen.o)
 .debug_line_str
                0x0000000000001f2b      0x114 C:/Users/jukken/qnx803/target/qnx/aarch64le/lib\libc.a(strrchr.o)
 .debug_line_str
                0x000000000000203f      0x19b C:/Users/jukken/qnx803/target/qnx/aarch64le/lib\libc.a(strtol.o)
 .debug_line_str
                0x00000000000021da      0x161 C:/Users/jukken/qnx803/target/qnx/aarch64le/lib\libc.a(__progname.o)
 .debug_line_str
                0x000000000000233b      0x154 C:/Users/jukken/qnx803/target/qnx/aarch64le/lib\libc.a(_ssp.o)
 .debug_line_str
                0x000000000000248f      0x136 C:/Users/jukken/qnx803/target/qnx/aarch64le/lib\libc.a(__stack_chk_guard.o)
 .debug_line_str
                0x00000000000025c5      0x1a9 C:/Users/jukken/qnx803/target/qnx/aarch64le/lib\libc.a(getsubopt.o)
 .debug_line_str
                0x000000000000276e      0x19d C:/Users/jukken/qnx803/target/qnx/aarch64le/lib\libc.a(xstoint.o)
 .debug_line_str
                0x000000000000290b      0x19e C:/Users/jukken/qnx803/target/qnx/aarch64le/lib\libc.a(strncmp.o)
 .debug_line_str
                0x0000000000002aa9      0x148 C:/Users/jukken/qnx803/target/qnx/aarch64le/lib\libc.a(xctype.o)

.debug_loclists
                0x0000000000000000     0x4998
 *(.debug_loclists)
 .debug_loclists
                0x0000000000000000      0x8a2 C:/Users/jukken/qnx803/target/qnx/aarch64le/usr/lib\libucl.a(n2b_d.o)
 .debug_loclists
                0x00000000000008a2       0xde C:/Users/jukken/qnx803/target/qnx/aarch64le/usr/lib\libdrvr.a(hwi_find_unit.o)
 .debug_loclists
                0x0000000000000980       0xfb C:/Users/jukken/qnx803/target/qnx/aarch64le/usr/lib\libdrvr.a(hwi_tag_find.o)
 .debug_loclists
                0x0000000000000a7b       0x4e C:/Users/jukken/qnx803/target/qnx/aarch64le/usr/lib\libdrvr.a(hwi_find_bus.o)
 .debug_loclists
                0x0000000000000ac9       0x4e C:/Users/jukken/qnx803/target/qnx/aarch64le/usr/lib\libdrvr.a(hwi_find_device.o)
 .debug_loclists
                0x0000000000000b17      0x111 C:/Users/jukken/qnx803/target/qnx/aarch64le/usr/lib\libdrvr.a(hwi_find.o)
 .debug_loclists
                0x0000000000000c28      0xdfe C:/Users/jukken/qnx803/target/qnx/aarch64le/usr/lib\libfdt.a(fdt.o)
 .debug_loclists
                0x0000000000001a26     0x2363 C:/Users/jukken/qnx803/target/qnx/aarch64le/usr/lib\libfdt.a(fdt_ro.o)
 .debug_loclists
                0x0000000000003d89      0x122 C:/Users/jukken/qnx803/target/qnx/aarch64le/lib\libc.a(hwi_find_item.o)
 .debug_loclists
                0x0000000000003eab       0x79 C:/Users/jukken/qnx803/target/qnx/aarch64le/lib\libc.a(hwi_next_tag.o)
 .debug_loclists
                0x0000000000003f24       0x25 C:/Users/jukken/qnx803/target/qnx/aarch64le/lib\libc.a(hwi_off2tag.o)
 .debug_loclists
                0x0000000000003f49       0x25 C:/Users/jukken/qnx803/target/qnx/aarch64le/lib\libc.a(hwi_tag2off.o)
 .debug_loclists
                0x0000000000003f6e       0x59 C:/Users/jukken/qnx803/target/qnx/aarch64le/lib\libc.a(memchr.o)
 .debug_loclists
                0x0000000000003fc7      0x125 C:/Users/jukken/qnx803/target/qnx/aarch64le/lib\libc.a(memset.o)
 .debug_loclists
                0x00000000000040ec       0x35 C:/Users/jukken/qnx803/target/qnx/aarch64le/lib\libc.a(strchr.o)
 .debug_loclists
                0x0000000000004121       0xdd C:/Users/jukken/qnx803/target/qnx/aarch64le/lib\libc.a(strlcpy.o)
 .debug_loclists
                0x00000000000041fe       0x41 C:/Users/jukken/qnx803/target/qnx/aarch64le/lib\libc.a(strnlen.o)
 .debug_loclists
                0x000000000000423f       0x45 C:/Users/jukken/qnx803/target/qnx/aarch64le/lib\libc.a(strrchr.o)
 .debug_loclists
                0x0000000000004284       0x42 C:/Users/jukken/qnx803/target/qnx/aarch64le/lib\libc.a(strtol.o)
 .debug_loclists
                0x00000000000042c6       0x2d C:/Users/jukken/qnx803/target/qnx/aarch64le/lib\libc.a(__progname.o)
 .debug_loclists
                0x00000000000042f3      0x144 C:/Users/jukken/qnx803/target/qnx/aarch64le/lib\libc.a(getsubopt.o)
 .debug_loclists
                0x0000000000004437      0x4bf C:/Users/jukken/qnx803/target/qnx/aarch64le/lib\libc.a(xstoint.o)
 .debug_loclists
                0x00000000000048f6       0xa2 C:/Users/jukken/qnx803/target/qnx/aarch64le/lib\libc.a(strncmp.o)

.debug_macro
 *(.debug_macro)

.debug_names
 *(.debug_names)

.debug_rnglists
                0x0000000000000000      0x346
 *(.debug_rnglists)
 .debug_rnglists
                0x0000000000000000       0x61 C:/Users/jukken/qnx803/target/qnx/aarch64le/usr/lib\libucl.a(n2b_d.o)
 .debug_rnglists
                0x0000000000000061       0x1b C:/Users/jukken/qnx803/target/qnx/aarch64le/usr/lib\libdrvr.a(hwi_find_unit.o)
 .debug_rnglists
                0x000000000000007c       0x28 C:/Users/jukken/qnx803/target/qnx/aarch64le/usr/lib\libdrvr.a(hwi_tag_find.o)
 .debug_rnglists
                0x00000000000000a4       0x2e C:/Users/jukken/qnx803/target/qnx/aarch64le/usr/lib\libdrvr.a(hwi_find.o)
 .debug_rnglists
                0x00000000000000d2       0x38 C:/Users/jukken/qnx803/target/qnx/aarch64le/usr/lib\libfdt.a(fdt.o)
 .debug_rnglists
                0x000000000000010a      0x1de C:/Users/jukken/qnx803/target/qnx/aarch64le/usr/lib\libfdt.a(fdt_ro.o)
 .debug_rnglists
                0x00000000000002e8       0x17 C:/Users/jukken/qnx803/target/qnx/aarch64le/lib\libc.a(hwi_find_item.o)
 .debug_rnglists
                0x00000000000002ff       0x16 C:/Users/jukken/qnx803/target/qnx/aarch64le/lib\libc.a(memset.o)
 .debug_rnglists
                0x0000000000000315       0x31 C:/Users/jukken/qnx803/target/qnx/aarch64le/lib\libc.a(xstoint.o)

.debug_str_offsets
 *(.debug_str_offsets)

.debug_sup
 *(.debug_sup)

.ARM.attributes
 *(.ARM.attributes)
 *(.gnu.attributes)

.note.gnu.arm.ident
 *(.note.gnu.arm.ident)
OUTPUT(C:/Users/jukken/rpi4_hyp_803/src/hardware/startup/boards/bcm2711/rpi4/aarch64/le/startup-bcm2711-rpi4 elf64-littleaarch64)
LOAD linker stubs
